
./bomb:     file format elf64-x86-64


Disassembly of section .init:

0000000000401000 <_init>:
  401000:	f3 0f 1e fa          	endbr64
  401004:	48 83 ec 08          	sub    $0x8,%rsp
  401008:	48 8b 05 d1 3f 00 00 	mov    0x3fd1(%rip),%rax        # 404fe0 <__gmon_start__@Base>
  40100f:	48 85 c0             	test   %rax,%rax
  401012:	74 02                	je     401016 <_init+0x16>
  401014:	ff d0                	call   *%rax
  401016:	48 83 c4 08          	add    $0x8,%rsp
  40101a:	c3                   	ret

Disassembly of section .plt:

0000000000401020 <setvbuf@plt-0x10>:
  401020:	ff 35 ca 3f 00 00    	push   0x3fca(%rip)        # 404ff0 <_GLOBAL_OFFSET_TABLE_+0x8>
  401026:	ff 25 cc 3f 00 00    	jmp    *0x3fcc(%rip)        # 404ff8 <_GLOBAL_OFFSET_TABLE_+0x10>
  40102c:	0f 1f 40 00          	nopl   0x0(%rax)

0000000000401030 <setvbuf@plt>:
  401030:	ff 25 ca 3f 00 00    	jmp    *0x3fca(%rip)        # 405000 <setvbuf@GLIBC_2.2.5>
  401036:	68 00 00 00 00       	push   $0x0
  40103b:	e9 e0 ff ff ff       	jmp    401020 <_init+0x20>

0000000000401040 <__errno_location@plt>:
  401040:	ff 25 c2 3f 00 00    	jmp    *0x3fc2(%rip)        # 405008 <__errno_location@GLIBC_2.2.5>
  401046:	68 01 00 00 00       	push   $0x1
  40104b:	e9 d0 ff ff ff       	jmp    401020 <_init+0x20>

0000000000401050 <printf@plt>:
  401050:	ff 25 ba 3f 00 00    	jmp    *0x3fba(%rip)        # 405010 <printf@GLIBC_2.2.5>
  401056:	68 02 00 00 00       	push   $0x2
  40105b:	e9 c0 ff ff ff       	jmp    401020 <_init+0x20>

0000000000401060 <isspace@plt>:
  401060:	ff 25 b2 3f 00 00    	jmp    *0x3fb2(%rip)        # 405018 <isspace@GLIBC_2.2.5>
  401066:	68 03 00 00 00       	push   $0x3
  40106b:	e9 b0 ff ff ff       	jmp    401020 <_init+0x20>

0000000000401070 <sprintf@plt>:
  401070:	ff 25 aa 3f 00 00    	jmp    *0x3faa(%rip)        # 405020 <sprintf@GLIBC_2.2.5>
  401076:	68 04 00 00 00       	push   $0x4
  40107b:	e9 a0 ff ff ff       	jmp    401020 <_init+0x20>

0000000000401080 <socket@plt>:
  401080:	ff 25 a2 3f 00 00    	jmp    *0x3fa2(%rip)        # 405028 <socket@GLIBC_2.2.5>
  401086:	68 05 00 00 00       	push   $0x5
  40108b:	e9 90 ff ff ff       	jmp    401020 <_init+0x20>

0000000000401090 <strtoul@plt>:
  401090:	ff 25 9a 3f 00 00    	jmp    *0x3f9a(%rip)        # 405030 <strtoul@GLIBC_2.2.5>
  401096:	68 06 00 00 00       	push   $0x6
  40109b:	e9 80 ff ff ff       	jmp    401020 <_init+0x20>

00000000004010a0 <write@plt>:
  4010a0:	ff 25 92 3f 00 00    	jmp    *0x3f92(%rip)        # 405038 <write@GLIBC_2.2.5>
  4010a6:	68 07 00 00 00       	push   $0x7
  4010ab:	e9 70 ff ff ff       	jmp    401020 <_init+0x20>

00000000004010b0 <strspn@plt>:
  4010b0:	ff 25 8a 3f 00 00    	jmp    *0x3f8a(%rip)        # 405040 <strspn@GLIBC_2.2.5>
  4010b6:	68 08 00 00 00       	push   $0x8
  4010bb:	e9 60 ff ff ff       	jmp    401020 <_init+0x20>

00000000004010c0 <strlen@plt>:
  4010c0:	ff 25 82 3f 00 00    	jmp    *0x3f82(%rip)        # 405048 <strlen@GLIBC_2.2.5>
  4010c6:	68 09 00 00 00       	push   $0x9
  4010cb:	e9 50 ff ff ff       	jmp    401020 <_init+0x20>

00000000004010d0 <__assert_fail@plt>:
  4010d0:	ff 25 7a 3f 00 00    	jmp    *0x3f7a(%rip)        # 405050 <__assert_fail@GLIBC_2.2.5>
  4010d6:	68 0a 00 00 00       	push   $0xa
  4010db:	e9 40 ff ff ff       	jmp    401020 <_init+0x20>

00000000004010e0 <sleep@plt>:
  4010e0:	ff 25 72 3f 00 00    	jmp    *0x3f72(%rip)        # 405058 <sleep@GLIBC_2.2.5>
  4010e6:	68 0b 00 00 00       	push   $0xb
  4010eb:	e9 30 ff ff ff       	jmp    401020 <_init+0x20>

00000000004010f0 <connect@plt>:
  4010f0:	ff 25 6a 3f 00 00    	jmp    *0x3f6a(%rip)        # 405060 <connect@GLIBC_2.2.5>
  4010f6:	68 0c 00 00 00       	push   $0xc
  4010fb:	e9 20 ff ff ff       	jmp    401020 <_init+0x20>

0000000000401100 <__cxa_atexit@plt>:
  401100:	ff 25 62 3f 00 00    	jmp    *0x3f62(%rip)        # 405068 <__cxa_atexit@GLIBC_2.2.5>
  401106:	68 0d 00 00 00       	push   $0xd
  40110b:	e9 10 ff ff ff       	jmp    401020 <_init+0x20>

0000000000401110 <strcpy@plt>:
  401110:	ff 25 5a 3f 00 00    	jmp    *0x3f5a(%rip)        # 405070 <strcpy@GLIBC_2.2.5>
  401116:	68 0e 00 00 00       	push   $0xe
  40111b:	e9 00 ff ff ff       	jmp    401020 <_init+0x20>

0000000000401120 <__isoc99_sscanf@plt>:
  401120:	ff 25 52 3f 00 00    	jmp    *0x3f52(%rip)        # 405078 <__isoc99_sscanf@GLIBC_2.7>
  401126:	68 0f 00 00 00       	push   $0xf
  40112b:	e9 f0 fe ff ff       	jmp    401020 <_init+0x20>

0000000000401130 <gethostbyname@plt>:
  401130:	ff 25 4a 3f 00 00    	jmp    *0x3f4a(%rip)        # 405080 <gethostbyname@GLIBC_2.2.5>
  401136:	68 10 00 00 00       	push   $0x10
  40113b:	e9 e0 fe ff ff       	jmp    401020 <_init+0x20>

0000000000401140 <fopen@plt>:
  401140:	ff 25 42 3f 00 00    	jmp    *0x3f42(%rip)        # 405088 <fopen@GLIBC_2.2.5>
  401146:	68 11 00 00 00       	push   $0x11
  40114b:	e9 d0 fe ff ff       	jmp    401020 <_init+0x20>

0000000000401150 <signal@plt>:
  401150:	ff 25 3a 3f 00 00    	jmp    *0x3f3a(%rip)        # 405090 <signal@GLIBC_2.2.5>
  401156:	68 12 00 00 00       	push   $0x12
  40115b:	e9 c0 fe ff ff       	jmp    401020 <_init+0x20>

0000000000401160 <exit@plt>:
  401160:	ff 25 32 3f 00 00    	jmp    *0x3f32(%rip)        # 405098 <exit@GLIBC_2.2.5>
  401166:	68 13 00 00 00       	push   $0x13
  40116b:	e9 b0 fe ff ff       	jmp    401020 <_init+0x20>

0000000000401170 <sigemptyset@plt>:
  401170:	ff 25 2a 3f 00 00    	jmp    *0x3f2a(%rip)        # 4050a0 <sigemptyset@GLIBC_2.2.5>
  401176:	68 14 00 00 00       	push   $0x14
  40117b:	e9 a0 fe ff ff       	jmp    401020 <_init+0x20>

0000000000401180 <sigaction@plt>:
  401180:	ff 25 22 3f 00 00    	jmp    *0x3f22(%rip)        # 4050a8 <sigaction@GLIBC_2.2.5>
  401186:	68 15 00 00 00       	push   $0x15
  40118b:	e9 90 fe ff ff       	jmp    401020 <_init+0x20>

0000000000401190 <strcmp@plt>:
  401190:	ff 25 1a 3f 00 00    	jmp    *0x3f1a(%rip)        # 4050b0 <strcmp@GLIBC_2.2.5>
  401196:	68 16 00 00 00       	push   $0x16
  40119b:	e9 80 fe ff ff       	jmp    401020 <_init+0x20>

00000000004011a0 <strtol@plt>:
  4011a0:	ff 25 12 3f 00 00    	jmp    *0x3f12(%rip)        # 4050b8 <strtol@GLIBC_2.2.5>
  4011a6:	68 17 00 00 00       	push   $0x17
  4011ab:	e9 70 fe ff ff       	jmp    401020 <_init+0x20>

00000000004011b0 <fprintf@plt>:
  4011b0:	ff 25 0a 3f 00 00    	jmp    *0x3f0a(%rip)        # 4050c0 <fprintf@GLIBC_2.2.5>
  4011b6:	68 18 00 00 00       	push   $0x18
  4011bb:	e9 60 fe ff ff       	jmp    401020 <_init+0x20>

00000000004011c0 <read@plt>:
  4011c0:	ff 25 02 3f 00 00    	jmp    *0x3f02(%rip)        # 4050c8 <read@GLIBC_2.2.5>
  4011c6:	68 19 00 00 00       	push   $0x19
  4011cb:	e9 50 fe ff ff       	jmp    401020 <_init+0x20>

00000000004011d0 <puts@plt>:
  4011d0:	ff 25 fa 3e 00 00    	jmp    *0x3efa(%rip)        # 4050d0 <puts@GLIBC_2.2.5>
  4011d6:	68 1a 00 00 00       	push   $0x1a
  4011db:	e9 40 fe ff ff       	jmp    401020 <_init+0x20>

00000000004011e0 <fgets@plt>:
  4011e0:	ff 25 f2 3e 00 00    	jmp    *0x3ef2(%rip)        # 4050d8 <fgets@GLIBC_2.2.5>
  4011e6:	68 1b 00 00 00       	push   $0x1b
  4011eb:	e9 30 fe ff ff       	jmp    401020 <_init+0x20>

00000000004011f0 <memmove@plt>:
  4011f0:	ff 25 ea 3e 00 00    	jmp    *0x3eea(%rip)        # 4050e0 <memmove@GLIBC_2.2.5>
  4011f6:	68 1c 00 00 00       	push   $0x1c
  4011fb:	e9 20 fe ff ff       	jmp    401020 <_init+0x20>

0000000000401200 <_exit@plt>:
  401200:	ff 25 e2 3e 00 00    	jmp    *0x3ee2(%rip)        # 4050e8 <_exit@GLIBC_2.2.5>
  401206:	68 1d 00 00 00       	push   $0x1d
  40120b:	e9 10 fe ff ff       	jmp    401020 <_init+0x20>

0000000000401210 <alarm@plt>:
  401210:	ff 25 da 3e 00 00    	jmp    *0x3eda(%rip)        # 4050f0 <alarm@GLIBC_2.2.5>
  401216:	68 1e 00 00 00       	push   $0x1e
  40121b:	e9 00 fe ff ff       	jmp    401020 <_init+0x20>

0000000000401220 <close@plt>:
  401220:	ff 25 d2 3e 00 00    	jmp    *0x3ed2(%rip)        # 4050f8 <close@GLIBC_2.2.5>
  401226:	68 1f 00 00 00       	push   $0x1f
  40122b:	e9 f0 fd ff ff       	jmp    401020 <_init+0x20>

Disassembly of section .text:

0000000000401230 <main>:
  401230:	55                   	push   %rbp
  401231:	48 89 e5             	mov    %rsp,%rbp
  401234:	41 54                	push   %r12
  401236:	53                   	push   %rbx
  401237:	48 89 f3             	mov    %rsi,%rbx
  40123a:	83 ff 02             	cmp    $0x2,%edi
  40123d:	0f 84 e0 00 00 00    	je     401323 <main+0xf3>
  401243:	0f 8f 2b 01 00 00    	jg     401374 <main+0x144>
  401249:	e8 52 09 00 00       	call   401ba0 <_Z15initialize_bombv>
  40124e:	bf 37 30 40 00       	mov    $0x403037,%edi
  401253:	e8 78 ff ff ff       	call   4011d0 <puts@plt>
  401258:	e8 33 0a 00 00       	call   401c90 <_Z9read_linev>
  40125d:	48 89 c7             	mov    %rax,%rdi
  401260:	e8 2b 02 00 00       	call   401490 <_Z6phase1Pc>
  401265:	e8 96 0c 00 00       	call   401f00 <_Z13phase_defusedv>
  40126a:	bf 47 30 40 00       	mov    $0x403047,%edi
  40126f:	e8 5c ff ff ff       	call   4011d0 <puts@plt>
  401274:	e8 17 0a 00 00       	call   401c90 <_Z9read_linev>
  401279:	48 89 c7             	mov    %rax,%rdi
  40127c:	e8 3f 02 00 00       	call   4014c0 <_Z6phase2Pc>
  401281:	e8 7a 0c 00 00       	call   401f00 <_Z13phase_defusedv>
  401286:	bf 58 30 40 00       	mov    $0x403058,%edi
  40128b:	e8 40 ff ff ff       	call   4011d0 <puts@plt>
  401290:	e8 fb 09 00 00       	call   401c90 <_Z9read_linev>
  401295:	48 89 c7             	mov    %rax,%rdi
  401298:	e8 73 02 00 00       	call   401510 <_Z6phase3Pc>
  40129d:	e8 5e 0c 00 00       	call   401f00 <_Z13phase_defusedv>
  4012a2:	bf 69 30 40 00       	mov    $0x403069,%edi
  4012a7:	e8 24 ff ff ff       	call   4011d0 <puts@plt>
  4012ac:	e8 df 09 00 00       	call   401c90 <_Z9read_linev>
  4012b1:	48 89 c7             	mov    %rax,%rdi
  4012b4:	e8 d7 02 00 00       	call   401590 <_Z6phase4Pc>
  4012b9:	e8 42 0c 00 00       	call   401f00 <_Z13phase_defusedv>
  4012be:	bf 7a 30 40 00       	mov    $0x40307a,%edi
  4012c3:	e8 08 ff ff ff       	call   4011d0 <puts@plt>
  4012c8:	e8 c3 09 00 00       	call   401c90 <_Z9read_linev>
  4012cd:	48 89 c7             	mov    %rax,%rdi
  4012d0:	e8 bb 03 00 00       	call   401690 <_Z6phase5Pc>
  4012d5:	e8 26 0c 00 00       	call   401f00 <_Z13phase_defusedv>
  4012da:	bf 8b 30 40 00       	mov    $0x40308b,%edi
  4012df:	e8 ec fe ff ff       	call   4011d0 <puts@plt>
  4012e4:	e8 a7 09 00 00       	call   401c90 <_Z9read_linev>
  4012e9:	48 89 c7             	mov    %rax,%rdi
  4012ec:	e8 2f 05 00 00       	call   401820 <_Z6phase6Pc>
  4012f1:	e8 0a 0c 00 00       	call   401f00 <_Z13phase_defusedv>
  4012f6:	bf 9c 30 40 00       	mov    $0x40309c,%edi
  4012fb:	e8 d0 fe ff ff       	call   4011d0 <puts@plt>
  401300:	e8 8b 09 00 00       	call   401c90 <_Z9read_linev>
  401305:	48 89 c7             	mov    %rax,%rdi
  401308:	e8 b3 05 00 00       	call   4018c0 <_Z6phase7Pc>
  40130d:	e8 ee 0b 00 00       	call   401f00 <_Z13phase_defusedv>
  401312:	bf ad 30 40 00       	mov    $0x4030ad,%edi
  401317:	e8 b4 fe ff ff       	call   4011d0 <puts@plt>
  40131c:	31 c0                	xor    %eax,%eax
  40131e:	5b                   	pop    %rbx
  40131f:	41 5c                	pop    %r12
  401321:	5d                   	pop    %rbp
  401322:	c3                   	ret
  401323:	4c 8b 66 08          	mov    0x8(%rsi),%r12
  401327:	be 04 30 40 00       	mov    $0x403004,%esi
  40132c:	4c 89 e7             	mov    %r12,%rdi
  40132f:	e8 5c fe ff ff       	call   401190 <strcmp@plt>
  401334:	85 c0                	test   %eax,%eax
  401336:	0f 84 0d ff ff ff    	je     401249 <main+0x19>
  40133c:	be 06 30 40 00       	mov    $0x403006,%esi
  401341:	4c 89 e7             	mov    %r12,%rdi
  401344:	e8 f7 fd ff ff       	call   401140 <fopen@plt>
  401349:	48 89 05 60 40 00 00 	mov    %rax,0x4060(%rip)        # 4053b0 <infile>
  401350:	48 85 c0             	test   %rax,%rax
  401353:	0f 85 f0 fe ff ff    	jne    401249 <main+0x19>
  401359:	48 8b 53 08          	mov    0x8(%rbx),%rdx
  40135d:	48 8b 33             	mov    (%rbx),%rsi
  401360:	bf 08 30 40 00       	mov    $0x403008,%edi
  401365:	e8 e6 fc ff ff       	call   401050 <printf@plt>
  40136a:	bf 08 00 00 00       	mov    $0x8,%edi
  40136f:	e8 ec fd ff ff       	call   401160 <exit@plt>
  401374:	48 8b 36             	mov    (%rsi),%rsi
  401377:	bf 25 30 40 00       	mov    $0x403025,%edi
  40137c:	31 c0                	xor    %eax,%eax
  40137e:	e8 cd fc ff ff       	call   401050 <printf@plt>
  401383:	bf 08 00 00 00       	mov    $0x8,%edi
  401388:	e8 d3 fd ff ff       	call   401160 <exit@plt>
  40138d:	0f 1f 00             	nopl   (%rax)

0000000000401390 <_GLOBAL__sub_I_infile>:
  401390:	48 8b 05 f9 3f 00 00 	mov    0x3ff9(%rip),%rax        # 405390 <stdin@GLIBC_2.2.5>
  401397:	48 89 05 12 40 00 00 	mov    %rax,0x4012(%rip)        # 4053b0 <infile>
  40139e:	c3                   	ret
  40139f:	90                   	nop

00000000004013a0 <_start>:
  4013a0:	f3 0f 1e fa          	endbr64
  4013a4:	31 ed                	xor    %ebp,%ebp
  4013a6:	49 89 d1             	mov    %rdx,%r9
  4013a9:	5e                   	pop    %rsi
  4013aa:	48 89 e2             	mov    %rsp,%rdx
  4013ad:	48 83 e4 f0          	and    $0xfffffffffffffff0,%rsp
  4013b1:	50                   	push   %rax
  4013b2:	54                   	push   %rsp
  4013b3:	45 31 c0             	xor    %r8d,%r8d
  4013b6:	31 c9                	xor    %ecx,%ecx
  4013b8:	48 c7 c7 30 12 40 00 	mov    $0x401230,%rdi
  4013bf:	ff 15 13 3c 00 00    	call   *0x3c13(%rip)        # 404fd8 <__libc_start_main@GLIBC_2.34>
  4013c5:	f4                   	hlt
  4013c6:	66 2e 0f 1f 84 00 00 	cs nopw 0x0(%rax,%rax,1)
  4013cd:	00 00 00 

00000000004013d0 <_dl_relocate_static_pie>:
  4013d0:	f3 0f 1e fa          	endbr64
  4013d4:	c3                   	ret
  4013d5:	66 2e 0f 1f 84 00 00 	cs nopw 0x0(%rax,%rax,1)
  4013dc:	00 00 00 
  4013df:	90                   	nop

00000000004013e0 <deregister_tm_clones>:
  4013e0:	b8 80 53 40 00       	mov    $0x405380,%eax
  4013e5:	48 3d 80 53 40 00    	cmp    $0x405380,%rax
  4013eb:	74 13                	je     401400 <deregister_tm_clones+0x20>
  4013ed:	b8 00 00 00 00       	mov    $0x0,%eax
  4013f2:	48 85 c0             	test   %rax,%rax
  4013f5:	74 09                	je     401400 <deregister_tm_clones+0x20>
  4013f7:	bf 80 53 40 00       	mov    $0x405380,%edi
  4013fc:	ff e0                	jmp    *%rax
  4013fe:	66 90                	xchg   %ax,%ax
  401400:	c3                   	ret
  401401:	66 66 2e 0f 1f 84 00 	data16 cs nopw 0x0(%rax,%rax,1)
  401408:	00 00 00 00 
  40140c:	0f 1f 40 00          	nopl   0x0(%rax)

0000000000401410 <register_tm_clones>:
  401410:	be 80 53 40 00       	mov    $0x405380,%esi
  401415:	48 81 ee 80 53 40 00 	sub    $0x405380,%rsi
  40141c:	48 89 f0             	mov    %rsi,%rax
  40141f:	48 c1 ee 3f          	shr    $0x3f,%rsi
  401423:	48 c1 f8 03          	sar    $0x3,%rax
  401427:	48 01 c6             	add    %rax,%rsi
  40142a:	48 d1 fe             	sar    $1,%rsi
  40142d:	74 11                	je     401440 <register_tm_clones+0x30>
  40142f:	b8 00 00 00 00       	mov    $0x0,%eax
  401434:	48 85 c0             	test   %rax,%rax
  401437:	74 07                	je     401440 <register_tm_clones+0x30>
  401439:	bf 80 53 40 00       	mov    $0x405380,%edi
  40143e:	ff e0                	jmp    *%rax
  401440:	c3                   	ret
  401441:	66 66 2e 0f 1f 84 00 	data16 cs nopw 0x0(%rax,%rax,1)
  401448:	00 00 00 00 
  40144c:	0f 1f 40 00          	nopl   0x0(%rax)

0000000000401450 <__do_global_dtors_aux>:
  401450:	f3 0f 1e fa          	endbr64
  401454:	80 3d 4d 3f 00 00 00 	cmpb   $0x0,0x3f4d(%rip)        # 4053a8 <completed.0>
  40145b:	75 13                	jne    401470 <__do_global_dtors_aux+0x20>
  40145d:	55                   	push   %rbp
  40145e:	48 89 e5             	mov    %rsp,%rbp
  401461:	e8 7a ff ff ff       	call   4013e0 <deregister_tm_clones>
  401466:	c6 05 3b 3f 00 00 01 	movb   $0x1,0x3f3b(%rip)        # 4053a8 <completed.0>
  40146d:	5d                   	pop    %rbp
  40146e:	c3                   	ret
  40146f:	90                   	nop
  401470:	c3                   	ret
  401471:	66 66 2e 0f 1f 84 00 	data16 cs nopw 0x0(%rax,%rax,1)
  401478:	00 00 00 00 
  40147c:	0f 1f 40 00          	nopl   0x0(%rax)

0000000000401480 <frame_dummy>:
  401480:	f3 0f 1e fa          	endbr64
  401484:	eb 8a                	jmp    401410 <register_tm_clones>
  401486:	66 2e 0f 1f 84 00 00 	cs nopw 0x0(%rax,%rax,1)
  40148d:	00 00 00 

0000000000401490 <_Z6phase1Pc>:
  401490:	55                   	push   %rbp
  401491:	31 d2                	xor    %edx,%edx
  401493:	48 89 e5             	mov    %rsp,%rbp
  401496:	48 83 ec 10          	sub    $0x10,%rsp
  40149a:	48 8d 75 f8          	lea    -0x8(%rbp),%rsi
  40149e:	e8 fd fc ff ff       	call   4011a0 <strtol@plt>
  4014a3:	48 3d 65 ca 00 00    	cmp    $0xca65,%rax
  4014a9:	75 05                	jne    4014b0 <_Z6phase1Pc+0x20>
  4014ab:	c9                   	leave
  4014ac:	c3                   	ret
  4014ad:	0f 1f 00             	nopl   (%rax)
  4014b0:	e8 cb 09 00 00       	call   401e80 <_Z12explode_bombv>
  4014b5:	66 66 2e 0f 1f 84 00 	data16 cs nopw 0x0(%rax,%rax,1)
  4014bc:	00 00 00 00 

00000000004014c0 <_Z6phase2Pc>:
  4014c0:	55                   	push   %rbp
  4014c1:	48 89 e5             	mov    %rsp,%rbp
  4014c4:	53                   	push   %rbx
  4014c5:	48 8d 5d d0          	lea    -0x30(%rbp),%rbx
  4014c9:	48 89 de             	mov    %rbx,%rsi
  4014cc:	48 83 ec 28          	sub    $0x28,%rsp
  4014d0:	e8 eb 09 00 00       	call   401ec0 <_Z16read_six_numbersPKcPi>
  4014d5:	8b 4d d0             	mov    -0x30(%rbp),%ecx
  4014d8:	b8 01 00 00 00       	mov    $0x1,%eax
  4014dd:	89 c6                	mov    %eax,%esi
  4014df:	89 ca                	mov    %ecx,%edx
  4014e1:	8b 0c 83             	mov    (%rbx,%rax,4),%ecx
  4014e4:	0f af f0             	imul   %eax,%esi
  4014e7:	29 f2                	sub    %esi,%edx
  4014e9:	39 d1                	cmp    %edx,%ecx
  4014eb:	75 10                	jne    4014fd <_Z6phase2Pc+0x3d>
  4014ed:	48 83 c0 01          	add    $0x1,%rax
  4014f1:	48 83 f8 06          	cmp    $0x6,%rax
  4014f5:	75 e6                	jne    4014dd <_Z6phase2Pc+0x1d>
  4014f7:	48 8b 5d f8          	mov    -0x8(%rbp),%rbx
  4014fb:	c9                   	leave
  4014fc:	c3                   	ret
  4014fd:	e8 7e 09 00 00       	call   401e80 <_Z12explode_bombv>
  401502:	66 66 2e 0f 1f 84 00 	data16 cs nopw 0x0(%rax,%rax,1)
  401509:	00 00 00 00 
  40150d:	0f 1f 00             	nopl   (%rax)

0000000000401510 <_Z6phase3Pc>:
  401510:	55                   	push   %rbp
  401511:	31 c0                	xor    %eax,%eax
  401513:	be f1 31 40 00       	mov    $0x4031f1,%esi
  401518:	48 89 e5             	mov    %rsp,%rbp
  40151b:	48 83 ec 10          	sub    $0x10,%rsp
  40151f:	48 8d 4d f8          	lea    -0x8(%rbp),%rcx
  401523:	48 8d 55 f4          	lea    -0xc(%rbp),%rdx
  401527:	4c 8d 45 fc          	lea    -0x4(%rbp),%r8
  40152b:	e8 f0 fb ff ff       	call   401120 <__isoc99_sscanf@plt>
  401530:	83 f8 02             	cmp    $0x2,%eax
  401533:	7e 52                	jle    401587 <_Z6phase3Pc+0x77>
  401535:	83 7d f4 05          	cmpl   $0x5,-0xc(%rbp)
  401539:	77 4c                	ja     401587 <_Z6phase3Pc+0x77>
  40153b:	8b 45 f4             	mov    -0xc(%rbp),%eax
  40153e:	ff 24 c5 60 32 40 00 	jmp    *0x403260(,%rax,8)
  401545:	0f 1f 00             	nopl   (%rax)
  401548:	ba 7d fe ff ff       	mov    $0xfffffe7d,%edx
  40154d:	8b 45 fc             	mov    -0x4(%rbp),%eax
  401550:	03 45 f8             	add    -0x8(%rbp),%eax
  401553:	39 d0                	cmp    %edx,%eax
  401555:	75 30                	jne    401587 <_Z6phase3Pc+0x77>
  401557:	c9                   	leave
  401558:	c3                   	ret
  401559:	0f 1f 80 00 00 00 00 	nopl   0x0(%rax)
  401560:	ba 11 00 00 00       	mov    $0x11,%edx
  401565:	eb e6                	jmp    40154d <_Z6phase3Pc+0x3d>
  401567:	66 0f 1f 84 00 00 00 	nopw   0x0(%rax,%rax,1)
  40156e:	00 00 
  401570:	31 d2                	xor    %edx,%edx
  401572:	eb d9                	jmp    40154d <_Z6phase3Pc+0x3d>
  401574:	0f 1f 40 00          	nopl   0x0(%rax)
  401578:	ba 05 ff ff ff       	mov    $0xffffff05,%edx
  40157d:	eb ce                	jmp    40154d <_Z6phase3Pc+0x3d>
  40157f:	90                   	nop
  401580:	ba c7 fc ff ff       	mov    $0xfffffcc7,%edx
  401585:	eb c6                	jmp    40154d <_Z6phase3Pc+0x3d>
  401587:	e8 f4 08 00 00       	call   401e80 <_Z12explode_bombv>
  40158c:	0f 1f 40 00          	nopl   0x0(%rax)

0000000000401590 <_Z6phase4Pc>:
  401590:	55                   	push   %rbp
  401591:	be c8 32 40 00       	mov    $0x4032c8,%esi
  401596:	48 89 e5             	mov    %rsp,%rbp
  401599:	e8 f2 fb ff ff       	call   401190 <strcmp@plt>
  40159e:	85 c0                	test   %eax,%eax
  4015a0:	75 02                	jne    4015a4 <_Z6phase4Pc+0x14>
  4015a2:	5d                   	pop    %rbp
  4015a3:	c3                   	ret
  4015a4:	e8 d7 08 00 00       	call   401e80 <_Z12explode_bombv>
  4015a9:	0f 1f 80 00 00 00 00 	nopl   0x0(%rax)

00000000004015b0 <_Z12phase5_word1PKc>:
  4015b0:	55                   	push   %rbp
  4015b1:	48 89 e5             	mov    %rsp,%rbp
  4015b4:	41 54                	push   %r12
  4015b6:	49 89 fc             	mov    %rdi,%r12
  4015b9:	bf be 30 40 00       	mov    $0x4030be,%edi
  4015be:	53                   	push   %rbx
  4015bf:	bb a0 32 40 00       	mov    $0x4032a0,%ebx
  4015c4:	eb 17                	jmp    4015dd <_Z12phase5_word1PKc+0x2d>
  4015c6:	66 2e 0f 1f 84 00 00 	cs nopw 0x0(%rax,%rax,1)
  4015cd:	00 00 00 
  4015d0:	48 8b 7b 08          	mov    0x8(%rbx),%rdi
  4015d4:	48 83 c3 08          	add    $0x8,%rbx
  4015d8:	48 85 ff             	test   %rdi,%rdi
  4015db:	74 1b                	je     4015f8 <_Z12phase5_word1PKc+0x48>
  4015dd:	4c 89 e6             	mov    %r12,%rsi
  4015e0:	e8 ab fb ff ff       	call   401190 <strcmp@plt> 
  4015e5:	85 c0                	test   %eax,%eax
  4015e7:	75 e7                	jne    4015d0 <_Z12phase5_word1PKc+0x20>
  4015e9:	5b                   	pop    %rbx
  4015ea:	b8 01 00 00 00       	mov    $0x1,%eax
  4015ef:	41 5c                	pop    %r12
  4015f1:	5d                   	pop    %rbp
  4015f2:	c3                   	ret
  4015f3:	0f 1f 44 00 00       	nopl   0x0(%rax,%rax,1)
  4015f8:	5b                   	pop    %rbx
  4015f9:	31 c0                	xor    %eax,%eax
  4015fb:	41 5c                	pop    %r12
  4015fd:	5d                   	pop    %rbp
  4015fe:	c3                   	ret
  4015ff:	90                   	nop

0000000000401600 <_Z12phase5_word2PKcm>:
  401600:	b8 01 00 00 00       	mov    $0x1,%eax
  401605:	48 83 fe 01          	cmp    $0x1,%rsi
  401609:	76 1a                	jbe    401625 <_Z12phase5_word2PKcm+0x25>
  40160b:	48 8d 44 37 ff       	lea    -0x1(%rdi,%rsi,1),%rax
  401610:	48 83 ee 02          	sub    $0x2,%rsi
  401614:	48 d1 ee             	shr    $1,%rsi
  401617:	48 8d 54 37 01       	lea    0x1(%rdi,%rsi,1),%rdx
  40161c:	0f b6 08             	movzbl (%rax),%ecx
  40161f:	38 0f                	cmp    %cl,(%rdi)
  401621:	74 0d                	je     401630 <_Z12phase5_word2PKcm+0x30>
  401623:	31 c0                	xor    %eax,%eax
  401625:	c3                   	ret
  401626:	66 2e 0f 1f 84 00 00 	cs nopw 0x0(%rax,%rax,1)
  40162d:	00 00 00 
  401630:	48 83 c7 01          	add    $0x1,%rdi
  401634:	48 83 e8 01          	sub    $0x1,%rax
  401638:	48 39 d7             	cmp    %rdx,%rdi
  40163b:	75 df                	jne    40161c <_Z12phase5_word2PKcm+0x1c>
  40163d:	b8 01 00 00 00       	mov    $0x1,%eax
  401642:	c3                   	ret
  401643:	66 66 2e 0f 1f 84 00 	data16 cs nopw 0x0(%rax,%rax,1)
  40164a:	00 00 00 00 
  40164e:	66 90                	xchg   %ax,%ax

0000000000401650 <_Z18phase5_word1_word2PKcS0_>:
  401650:	eb 18                	jmp    40166a <_Z18phase5_word1_word2PKcS0_+0x1a>
  401652:	66 0f 1f 44 00 00    	nopw   0x0(%rax,%rax,1)
  401658:	38 06                	cmp    %al,(%rsi)
  40165a:	75 24                	jne    401680 <_Z18phase5_word1_word2PKcS0_+0x30>
  40165c:	80 7e 01 00          	cmpb   $0x0,0x1(%rsi)
  401660:	74 1e                	je     401680 <_Z18phase5_word1_word2PKcS0_+0x30>
  401662:	48 83 c7 01          	add    $0x1,%rdi
  401666:	48 83 c6 02          	add    $0x2,%rsi
  40166a:	0f b6 07             	movzbl (%rdi),%eax
  40166d:	84 c0                	test   %al,%al
  40166f:	75 e7                	jne    401658 <_Z18phase5_word1_word2PKcS0_+0x8>
  401671:	b8 01 00 00 00       	mov    $0x1,%eax
  401676:	c3                   	ret
  401677:	66 0f 1f 84 00 00 00 	nopw   0x0(%rax,%rax,1)
  40167e:	00 00 
  401680:	31 c0                	xor    %eax,%eax
  401682:	c3                   	ret
  401683:	66 66 2e 0f 1f 84 00 	data16 cs nopw 0x0(%rax,%rax,1)
  40168a:	00 00 00 00 
  40168e:	66 90                	xchg   %ax,%ax

0000000000401690 <_Z6phase5Pc>:
  401690:	55                   	push   %rbp
  401691:	31 c0                	xor    %eax,%eax
  401693:	be 0b 31 40 00       	mov    $0x40310b,%esi
  401698:	48 89 e5             	mov    %rsp,%rbp
  40169b:	41 55                	push   %r13
  40169d:	41 54                	push   %r12
  40169f:	4c 8d a5 40 ff ff ff 	lea    -0xc0(%rbp),%r12
  4016a6:	53                   	push   %rbx
  4016a7:	48 8d 9d a0 fe ff ff 	lea    -0x160(%rbp),%rbx
  4016ae:	4c 89 e1             	mov    %r12,%rcx
  4016b1:	48 89 da             	mov    %rbx,%rdx
  4016b4:	48 81 ec 48 01 00 00 	sub    $0x148,%rsp
  4016bb:	e8 60 fa ff ff       	call   401120 <__isoc99_sscanf@plt>
  4016c0:	83 f8 02             	cmp    $0x2,%eax
  4016c3:	75 58                	jne    40171d <_Z6phase5Pc+0x8d>
  4016c5:	48 89 df             	mov    %rbx,%rdi
  4016c8:	e8 e3 fe ff ff       	call   4015b0 <_Z12phase5_word1PKc>
  4016cd:	84 c0                	test   %al,%al
  4016cf:	74 4c                	je     40171d <_Z6phase5Pc+0x8d>
  4016d1:	48 89 df             	mov    %rbx,%rdi
  4016d4:	e8 e7 f9 ff ff       	call   4010c0 <strlen@plt>
  4016d9:	4c 89 e7             	mov    %r12,%rdi
  4016dc:	49 89 c5             	mov    %rax,%r13
  4016df:	e8 dc f9 ff ff       	call   4010c0 <strlen@plt>
  4016e4:	48 89 c6             	mov    %rax,%rsi
  4016e7:	4a 8d 04 ad fd ff ff 	lea    -0x3(,%r13,4),%rax
  4016ee:	ff 
  4016ef:	48 39 c6             	cmp    %rax,%rsi
  4016f2:	72 29                	jb     40171d <_Z6phase5Pc+0x8d>
  4016f4:	4c 89 e7             	mov    %r12,%rdi
  4016f7:	e8 04 ff ff ff       	call   401600 <_Z12phase5_word2PKcm>
  4016fc:	84 c0                	test   %al,%al
  4016fe:	74 1d                	je     40171d <_Z6phase5Pc+0x8d>
  401700:	4c 89 e6             	mov    %r12,%rsi
  401703:	48 89 df             	mov    %rbx,%rdi
  401706:	e8 45 ff ff ff       	call   401650 <_Z18phase5_word1_word2PKcS0_>
  40170b:	84 c0                	test   %al,%al
  40170d:	74 0e                	je     40171d <_Z6phase5Pc+0x8d>
  40170f:	48 81 c4 48 01 00 00 	add    $0x148,%rsp
  401716:	5b                   	pop    %rbx
  401717:	41 5c                	pop    %r12
  401719:	41 5d                	pop    %r13
  40171b:	5d                   	pop    %rbp
  40171c:	c3                   	ret
  40171d:	e8 5e 07 00 00       	call   401e80 <_Z12explode_bombv>
  401722:	66 66 2e 0f 1f 84 00 	data16 cs nopw 0x0(%rax,%rax,1)
  401729:	00 00 00 00 
  40172d:	0f 1f 00             	nopl   (%rax)

0000000000401730 <_Z12calc6_factorPcP5calc6>:
  401730:	55                   	push   %rbp
  401731:	48 89 e5             	mov    %rsp,%rbp
  401734:	41 55                	push   %r13
  401736:	41 54                	push   %r12
  401738:	49 89 f4             	mov    %rsi,%r12
  40173b:	be c4 30 40 00       	mov    $0x4030c4,%esi
  401740:	53                   	push   %rbx
  401741:	48 89 fb             	mov    %rdi,%rbx
  401744:	48 83 ec 08          	sub    $0x8,%rsp
  401748:	e8 63 f9 ff ff       	call   4010b0 <strspn@plt>
  40174d:	ba 0a 00 00 00       	mov    $0xa,%edx
  401752:	31 f6                	xor    %esi,%esi
  401754:	48 89 df             	mov    %rbx,%rdi
  401757:	49 89 c5             	mov    %rax,%r13
  40175a:	e8 31 f9 ff ff       	call   401090 <strtoul@plt>
  40175f:	4d 85 ed             	test   %r13,%r13
  401762:	0f 94 c2             	sete   %dl
  401765:	41 89 04 24          	mov    %eax,(%r12)
  401769:	41 08 54 24 08       	or     %dl,0x8(%r12)
  40176e:	83 f8 04             	cmp    $0x4,%eax
  401771:	76 06                	jbe    401779 <_Z12calc6_factorPcP5calc6+0x49>
  401773:	41 83 44 24 04 01    	addl   $0x1,0x4(%r12)
  401779:	48 83 c4 08          	add    $0x8,%rsp
  40177d:	4a 8d 04 2b          	lea    (%rbx,%r13,1),%rax
  401781:	5b                   	pop    %rbx
  401782:	41 5c                	pop    %r12
  401784:	41 5d                	pop    %r13
  401786:	5d                   	pop    %rbp
  401787:	c3                   	ret
  401788:	0f 1f 84 00 00 00 00 	nopl   0x0(%rax,%rax,1)
  40178f:	00 

0000000000401790 <_Z10calc6_termPcP5calc6>:
  401790:	55                   	push   %rbp
  401791:	48 89 e5             	mov    %rsp,%rbp
  401794:	41 54                	push   %r12
  401796:	53                   	push   %rbx
  401797:	48 89 f3             	mov    %rsi,%rbx
  40179a:	e8 91 ff ff ff       	call   401730 <_Z12calc6_factorPcP5calc6>
  40179f:	80 38 2a             	cmpb   $0x2a,(%rax)
  4017a2:	75 28                	jne    4017cc <_Z10calc6_termPcP5calc6+0x3c>
  4017a4:	44 8b 23             	mov    (%rbx),%r12d
  4017a7:	66 0f 1f 84 00 00 00 	nopw   0x0(%rax,%rax,1)
  4017ae:	00 00 
  4017b0:	c6 43 09 01          	movb   $0x1,0x9(%rbx)
  4017b4:	48 8d 78 01          	lea    0x1(%rax),%rdi
  4017b8:	48 89 de             	mov    %rbx,%rsi
  4017bb:	e8 70 ff ff ff       	call   401730 <_Z12calc6_factorPcP5calc6>
  4017c0:	44 0f af 23          	imul   (%rbx),%r12d
  4017c4:	44 89 23             	mov    %r12d,(%rbx)
  4017c7:	80 38 2a             	cmpb   $0x2a,(%rax)
  4017ca:	74 e4                	je     4017b0 <_Z10calc6_termPcP5calc6+0x20>
  4017cc:	5b                   	pop    %rbx
  4017cd:	41 5c                	pop    %r12
  4017cf:	5d                   	pop    %rbp
  4017d0:	c3                   	ret
  4017d1:	66 66 2e 0f 1f 84 00 	data16 cs nopw 0x0(%rax,%rax,1)
  4017d8:	00 00 00 00 
  4017dc:	0f 1f 40 00          	nopl   0x0(%rax)

00000000004017e0 <_Z10calc6_exprPcP5calc6>:
  4017e0:	55                   	push   %rbp
  4017e1:	48 89 e5             	mov    %rsp,%rbp
  4017e4:	41 54                	push   %r12
  4017e6:	53                   	push   %rbx
  4017e7:	48 89 f3             	mov    %rsi,%rbx
  4017ea:	e8 a1 ff ff ff       	call   401790 <_Z10calc6_termPcP5calc6>
  4017ef:	80 38 2b             	cmpb   $0x2b,(%rax)
  4017f2:	75 27                	jne    40181b <_Z10calc6_exprPcP5calc6+0x3b>
  4017f4:	44 8b 23             	mov    (%rbx),%r12d
  4017f7:	66 0f 1f 84 00 00 00 	nopw   0x0(%rax,%rax,1)
  4017fe:	00 00 
  401800:	c6 43 0a 01          	movb   $0x1,0xa(%rbx)
  401804:	48 8d 78 01          	lea    0x1(%rax),%rdi
  401808:	48 89 de             	mov    %rbx,%rsi
  40180b:	e8 80 ff ff ff       	call   401790 <_Z10calc6_termPcP5calc6>
  401810:	44 03 23             	add    (%rbx),%r12d
  401813:	44 89 23             	mov    %r12d,(%rbx)
  401816:	80 38 2b             	cmpb   $0x2b,(%rax)
  401819:	74 e5                	je     401800 <_Z10calc6_exprPcP5calc6+0x20>
  40181b:	5b                   	pop    %rbx
  40181c:	41 5c                	pop    %r12
  40181e:	5d                   	pop    %rbp
  40181f:	c3                   	ret

0000000000401820 <_Z6phase6Pc>:
  401820:	55                   	push   %rbp
  401821:	31 c0                	xor    %eax,%eax
  401823:	48 89 e5             	mov    %rsp,%rbp
  401826:	48 83 ec 10          	sub    $0x10,%rsp
  40182a:	48 8d 75 f0          	lea    -0x10(%rbp),%rsi
  40182e:	48 c7 45 f0 00 00 00 	movq   $0x0,-0x10(%rbp)
  401835:	00 
  401836:	66 89 45 f8          	mov    %ax,-0x8(%rbp)
  40183a:	c6 45 fa 00          	movb   $0x0,-0x6(%rbp)
  40183e:	e8 9d ff ff ff       	call   4017e0 <_Z10calc6_exprPcP5calc6>
  401843:	80 7d f8 00          	cmpb   $0x0,-0x8(%rbp)
  401847:	75 27                	jne    401870 <_Z6phase6Pc+0x50>
  401849:	8b 75 f0             	mov    -0x10(%rbp),%esi
  40184c:	81 fe 3f a4 75 9e    	cmp    $0x9e75a43f,%esi
  401852:	75 21                	jne    401875 <_Z6phase6Pc+0x55>
  401854:	8b 75 f4             	mov    -0xc(%rbp),%esi
  401857:	83 fe 03             	cmp    $0x3,%esi
  40185a:	76 44                	jbe    4018a0 <_Z6phase6Pc+0x80>
  40185c:	80 7d f9 00          	cmpb   $0x0,-0x7(%rbp)
  401860:	74 2e                	je     401890 <_Z6phase6Pc+0x70>
  401862:	80 7d fa 00          	cmpb   $0x0,-0x6(%rbp)
  401866:	74 28                	je     401890 <_Z6phase6Pc+0x70>
  401868:	c9                   	leave
  401869:	c3                   	ret
  40186a:	66 0f 1f 44 00 00    	nopw   0x0(%rax,%rax,1)
  401870:	be ff ff ff ff       	mov    $0xffffffff,%esi
  401875:	bf cf 30 40 00       	mov    $0x4030cf,%edi
  40187a:	31 c0                	xor    %eax,%eax
  40187c:	e8 cf f7 ff ff       	call   401050 <printf@plt>
  401881:	e8 fa 05 00 00       	call   401e80 <_Z12explode_bombv>
  401886:	66 2e 0f 1f 84 00 00 	cs nopw 0x0(%rax,%rax,1)
  40188d:	00 00 00 
  401890:	bf 38 33 40 00       	mov    $0x403338,%edi
  401895:	e8 36 f9 ff ff       	call   4011d0 <puts@plt>
  40189a:	e8 e1 05 00 00       	call   401e80 <_Z12explode_bombv>
  40189f:	90                   	nop
  4018a0:	bf 08 33 40 00       	mov    $0x403308,%edi
  4018a5:	31 c0                	xor    %eax,%eax
  4018a7:	e8 a4 f7 ff ff       	call   401050 <printf@plt>
  4018ac:	e8 cf 05 00 00       	call   401e80 <_Z12explode_bombv>
  4018b1:	66 66 2e 0f 1f 84 00 	data16 cs nopw 0x0(%rax,%rax,1)
  4018b8:	00 00 00 00 
  4018bc:	0f 1f 40 00          	nopl   0x0(%rax)

00000000004018c0 <_Z6phase7Pc>:
  4018c0:	55                   	push   %rbp
  4018c1:	48 89 e5             	mov    %rsp,%rbp
  4018c4:	53                   	push   %rbx
  4018c5:	48 8d 5d a0          	lea    -0x60(%rbp),%rbx
  4018c9:	48 89 de             	mov    %rbx,%rsi
  4018cc:	48 83 ec 58          	sub    $0x58,%rsp
  4018d0:	e8 eb 05 00 00       	call   401ec0 <_Z16read_six_numbersPKcPi>
  4018d5:	b9 01 00 00 00       	mov    $0x1,%ecx
  4018da:	66 0f 1f 44 00 00    	nopw   0x0(%rax,%rax,1)
  4018e0:	8b 54 8b fc          	mov    -0x4(%rbx,%rcx,4),%edx
  4018e4:	8d 42 ff             	lea    -0x1(%rdx),%eax
  4018e7:	83 f8 05             	cmp    $0x5,%eax
  4018ea:	0f 87 cf 00 00 00    	ja     4019bf <_Z6phase7Pc+0xff>
  4018f0:	48 83 f9 06          	cmp    $0x6,%rcx
  4018f4:	74 22                	je     401918 <_Z6phase7Pc+0x58>
  4018f6:	48 89 c8             	mov    %rcx,%rax
  4018f9:	0f 1f 80 00 00 00 00 	nopl   0x0(%rax)
  401900:	3b 14 83             	cmp    (%rbx,%rax,4),%edx
  401903:	0f 84 b6 00 00 00    	je     4019bf <_Z6phase7Pc+0xff>
  401909:	48 83 c0 01          	add    $0x1,%rax
  40190d:	83 f8 06             	cmp    $0x6,%eax
  401910:	75 ee                	jne    401900 <_Z6phase7Pc+0x40>
  401912:	48 83 c1 01          	add    $0x1,%rcx
  401916:	eb c8                	jmp    4018e0 <_Z6phase7Pc+0x20>
  401918:	31 f6                	xor    %esi,%esi
  40191a:	48 8d 7d c0          	lea    -0x40(%rbp),%rdi
  40191e:	66 90                	xchg   %ax,%ax
  401920:	8b 0c b3             	mov    (%rbx,%rsi,4),%ecx
  401923:	ba 01 00 00 00       	mov    $0x1,%edx
  401928:	b8 f0 52 40 00       	mov    $0x4052f0,%eax
  40192d:	83 f9 01             	cmp    $0x1,%ecx
  401930:	7e 2d                	jle    40195f <_Z6phase7Pc+0x9f>
  401932:	f6 c1 01             	test   $0x1,%cl
  401935:	75 19                	jne    401950 <_Z6phase7Pc+0x90>
  401937:	ba 02 00 00 00       	mov    $0x2,%edx
  40193c:	48 8b 05 b5 39 00 00 	mov    0x39b5(%rip),%rax        # 4052f8 <node1+0x8>
  401943:	39 ca                	cmp    %ecx,%edx
  401945:	74 18                	je     40195f <_Z6phase7Pc+0x9f>
  401947:	66 0f 1f 84 00 00 00 	nopw   0x0(%rax,%rax,1)
  40194e:	00 00 
  401950:	48 8b 40 08          	mov    0x8(%rax),%rax
  401954:	83 c2 02             	add    $0x2,%edx
  401957:	48 8b 40 08          	mov    0x8(%rax),%rax
  40195b:	39 ca                	cmp    %ecx,%edx
  40195d:	75 f1                	jne    401950 <_Z6phase7Pc+0x90>
  40195f:	48 89 04 f7          	mov    %rax,(%rdi,%rsi,8)
  401963:	48 83 c6 01          	add    $0x1,%rsi
  401967:	48 83 fe 06          	cmp    $0x6,%rsi
  40196b:	75 b3                	jne    401920 <_Z6phase7Pc+0x60>
  40196d:	48 8b 55 c8          	mov    -0x38(%rbp),%rdx
  401971:	48 8b 4d d0          	mov    -0x30(%rbp),%rcx
  401975:	48 8b 45 c0          	mov    -0x40(%rbp),%rax
  401979:	48 89 50 08          	mov    %rdx,0x8(%rax)
  40197d:	48 89 4a 08          	mov    %rcx,0x8(%rdx)
  401981:	48 8b 55 d8          	mov    -0x28(%rbp),%rdx
  401985:	48 89 51 08          	mov    %rdx,0x8(%rcx)
  401989:	48 8b 4d e0          	mov    -0x20(%rbp),%rcx
  40198d:	48 89 4a 08          	mov    %rcx,0x8(%rdx)
  401991:	48 8b 55 e8          	mov    -0x18(%rbp),%rdx
  401995:	48 89 51 08          	mov    %rdx,0x8(%rcx)
  401999:	8b 08                	mov    (%rax),%ecx
  40199b:	48 c7 42 08 00 00 00 	movq   $0x0,0x8(%rdx)
  4019a2:	00 
  4019a3:	ba 05 00 00 00       	mov    $0x5,%edx
  4019a8:	48 8b 40 08          	mov    0x8(%rax),%rax
  4019ac:	89 ce                	mov    %ecx,%esi
  4019ae:	8b 08                	mov    (%rax),%ecx
  4019b0:	39 f1                	cmp    %esi,%ecx
  4019b2:	7c 0b                	jl     4019bf <_Z6phase7Pc+0xff>
  4019b4:	83 ea 01             	sub    $0x1,%edx
  4019b7:	75 ef                	jne    4019a8 <_Z6phase7Pc+0xe8>
  4019b9:	48 8b 5d f8          	mov    -0x8(%rbp),%rbx
  4019bd:	c9                   	leave
  4019be:	c3                   	ret
  4019bf:	e8 bc 04 00 00       	call   401e80 <_Z12explode_bombv>
  4019c4:	66 66 2e 0f 1f 84 00 	data16 cs nopw 0x0(%rax,%rax,1)
  4019cb:	00 00 00 00 
  4019cf:	90                   	nop

00000000004019d0 <_Z2f8P14treeNodeStructi>:
  4019d0:	48 85 ff             	test   %rdi,%rdi
  4019d3:	74 30                	je     401a05 <_Z2f8P14treeNodeStructi+0x35>
  4019d5:	55                   	push   %rbp
  4019d6:	48 89 e5             	mov    %rsp,%rbp
  4019d9:	39 37                	cmp    %esi,(%rdi)
  4019db:	7f 1b                	jg     4019f8 <_Z2f8P14treeNodeStructi+0x28>
  4019dd:	b8 00 00 00 00       	mov    $0x0,%eax
  4019e2:	74 0d                	je     4019f1 <_Z2f8P14treeNodeStructi+0x21>
  4019e4:	48 8b 7f 10          	mov    0x10(%rdi),%rdi
  4019e8:	e8 e3 ff ff ff       	call   4019d0 <_Z2f8P14treeNodeStructi>
  4019ed:	8d 44 00 01          	lea    0x1(%rax,%rax,1),%eax
  4019f1:	5d                   	pop    %rbp
  4019f2:	c3                   	ret
  4019f3:	0f 1f 44 00 00       	nopl   0x0(%rax,%rax,1)
  4019f8:	48 8b 7f 08          	mov    0x8(%rdi),%rdi
  4019fc:	e8 cf ff ff ff       	call   4019d0 <_Z2f8P14treeNodeStructi>
  401a01:	5d                   	pop    %rbp
  401a02:	01 c0                	add    %eax,%eax
  401a04:	c3                   	ret
  401a05:	b8 ff ff ff ff       	mov    $0xffffffff,%eax
  401a0a:	c3                   	ret
  401a0b:	0f 1f 44 00 00       	nopl   0x0(%rax,%rax,1)

0000000000401a10 <_Z12secret_phasev>:
  401a10:	55                   	push   %rbp
  401a11:	48 89 e5             	mov    %rsp,%rbp
  401a14:	e8 77 02 00 00       	call   401c90 <_Z9read_linev>
  401a19:	31 d2                	xor    %edx,%edx
  401a1b:	31 f6                	xor    %esi,%esi
  401a1d:	48 89 c7             	mov    %rax,%rdi
  401a20:	e8 7b f7 ff ff       	call   4011a0 <strtol@plt>
  401a25:	48 8d 50 ff          	lea    -0x1(%rax),%rdx
  401a29:	48 81 fa e8 03 00 00 	cmp    $0x3e8,%rdx
  401a30:	77 42                	ja     401a74 <_Z12secret_phasev+0x64>
  401a32:	3b 05 d8 36 00 00    	cmp    0x36d8(%rip),%eax        # 405110 <n1>
  401a38:	89 c6                	mov    %eax,%esi
  401a3a:	7c 2c                	jl     401a68 <_Z12secret_phasev+0x58>
  401a3c:	74 36                	je     401a74 <_Z12secret_phasev+0x64>
  401a3e:	48 8b 3d db 36 00 00 	mov    0x36db(%rip),%rdi        # 405120 <n1+0x10>
  401a45:	e8 86 ff ff ff       	call   4019d0 <_Z2f8P14treeNodeStructi>
  401a4a:	01 c0                	add    %eax,%eax
  401a4c:	83 f8 06             	cmp    $0x6,%eax
  401a4f:	75 23                	jne    401a74 <_Z12secret_phasev+0x64>
  401a51:	bf 68 33 40 00       	mov    $0x403368,%edi
  401a56:	e8 75 f7 ff ff       	call   4011d0 <puts@plt>
  401a5b:	5d                   	pop    %rbp
  401a5c:	e9 9f 04 00 00       	jmp    401f00 <_Z13phase_defusedv>
  401a61:	0f 1f 80 00 00 00 00 	nopl   0x0(%rax)
  401a68:	48 8b 3d a9 36 00 00 	mov    0x36a9(%rip),%rdi        # 405118 <n1+0x8>
  401a6f:	e8 5c ff ff ff       	call   4019d0 <_Z2f8P14treeNodeStructi>
  401a74:	e8 07 04 00 00       	call   401e80 <_Z12explode_bombv>
  401a79:	0f 1f 80 00 00 00 00 	nopl   0x0(%rax)

0000000000401a80 <_ZL11sig_handleri>:
  401a80:	55                   	push   %rbp
  401a81:	ba 39 00 00 00       	mov    $0x39,%edx
  401a86:	be 90 33 40 00       	mov    $0x403390,%esi
  401a8b:	bf 01 00 00 00       	mov    $0x1,%edi
  401a90:	48 89 e5             	mov    %rsp,%rbp
  401a93:	e8 08 f6 ff ff       	call   4010a0 <write@plt>
  401a98:	bf 03 00 00 00       	mov    $0x3,%edi
  401a9d:	e8 3e f6 ff ff       	call   4010e0 <sleep@plt>
  401aa2:	ba 07 00 00 00       	mov    $0x7,%edx
  401aa7:	be f5 30 40 00       	mov    $0x4030f5,%esi
  401aac:	bf 01 00 00 00       	mov    $0x1,%edi
  401ab1:	e8 ea f5 ff ff       	call   4010a0 <write@plt>
  401ab6:	bf 01 00 00 00       	mov    $0x1,%edi
  401abb:	e8 20 f6 ff ff       	call   4010e0 <sleep@plt>
  401ac0:	bf 01 00 00 00       	mov    $0x1,%edi
  401ac5:	ba 08 00 00 00       	mov    $0x8,%edx
  401aca:	be fd 30 40 00       	mov    $0x4030fd,%esi
  401acf:	e8 cc f5 ff ff       	call   4010a0 <write@plt>
  401ad4:	bf 10 00 00 00       	mov    $0x10,%edi
  401ad9:	e8 22 f7 ff ff       	call   401200 <_exit@plt>
  401ade:	66 90                	xchg   %ax,%ax

0000000000401ae0 <_Z1ev.part.0>:
  401ae0:	55                   	push   %rbp
  401ae1:	31 c0                	xor    %eax,%eax
  401ae3:	be 06 31 40 00       	mov    $0x403106,%esi
  401ae8:	bf 20 55 40 00       	mov    $0x405520,%edi
  401aed:	48 89 e5             	mov    %rsp,%rbp
  401af0:	48 81 ec 40 01 00 00 	sub    $0x140,%rsp
  401af7:	48 8d 95 c0 fe ff ff 	lea    -0x140(%rbp),%rdx
  401afe:	4c 8d 8d 60 ff ff ff 	lea    -0xa0(%rbp),%r9
  401b05:	49 89 d0             	mov    %rdx,%r8
  401b08:	48 89 d1             	mov    %rdx,%rcx
  401b0b:	e8 10 f6 ff ff       	call   401120 <__isoc99_sscanf@plt>
  401b10:	83 f8 04             	cmp    $0x4,%eax
  401b13:	74 1b                	je     401b30 <_Z1ev.part.0+0x50>
  401b15:	bf 30 34 40 00       	mov    $0x403430,%edi
  401b1a:	e8 b1 f6 ff ff       	call   4011d0 <puts@plt>
  401b1f:	bf 58 34 40 00       	mov    $0x403458,%edi
  401b24:	e8 a7 f6 ff ff       	call   4011d0 <puts@plt>
  401b29:	c9                   	leave
  401b2a:	c3                   	ret
  401b2b:	0f 1f 44 00 00       	nopl   0x0(%rax,%rax,1)
  401b30:	be 12 31 40 00       	mov    $0x403112,%esi
  401b35:	48 8d bd 60 ff ff ff 	lea    -0xa0(%rbp),%rdi
  401b3c:	e8 4f f6 ff ff       	call   401190 <strcmp@plt>
  401b41:	85 c0                	test   %eax,%eax
  401b43:	75 d0                	jne    401b15 <_Z1ev.part.0+0x35>
  401b45:	bf d0 33 40 00       	mov    $0x4033d0,%edi
  401b4a:	e8 81 f6 ff ff       	call   4011d0 <puts@plt>
  401b4f:	bf f8 33 40 00       	mov    $0x4033f8,%edi
  401b54:	e8 77 f6 ff ff       	call   4011d0 <puts@plt>
  401b59:	e8 b2 fe ff ff       	call   401a10 <_Z12secret_phasev>
  401b5e:	eb b5                	jmp    401b15 <_Z1ev.part.0+0x35>

0000000000401b60 <_Z1ev>:
  401b60:	83 3d 59 38 00 00 07 	cmpl   $0x7,0x3859(%rip)        # 4053c0 <ndefused>
  401b67:	74 07                	je     401b70 <_Z1ev+0x10>
  401b69:	c3                   	ret
  401b6a:	66 0f 1f 44 00 00    	nopw   0x0(%rax,%rax,1)
  401b70:	e9 6b ff ff ff       	jmp    401ae0 <_Z1ev.part.0>
  401b75:	66 66 2e 0f 1f 84 00 	data16 cs nopw 0x0(%rax,%rax,1)
  401b7c:	00 00 00 00 

0000000000401b80 <_Z13invalid_phasePc>:
  401b80:	55                   	push   %rbp
  401b81:	48 89 fe             	mov    %rdi,%rsi
  401b84:	31 c0                	xor    %eax,%eax
  401b86:	bf 1e 31 40 00       	mov    $0x40311e,%edi
  401b8b:	48 89 e5             	mov    %rsp,%rbp
  401b8e:	e8 bd f4 ff ff       	call   401050 <printf@plt>
  401b93:	bf 08 00 00 00       	mov    $0x8,%edi
  401b98:	e8 c3 f5 ff ff       	call   401160 <exit@plt>
  401b9d:	0f 1f 00             	nopl   (%rax)

0000000000401ba0 <_Z15initialize_bombv>:
  401ba0:	55                   	push   %rbp
  401ba1:	48 89 e5             	mov    %rsp,%rbp
  401ba4:	53                   	push   %rbx
  401ba5:	48 8d bd 58 df ff ff 	lea    -0x20a8(%rbp),%rdi
  401bac:	48 8d 9d 50 df ff ff 	lea    -0x20b0(%rbp),%rbx
  401bb3:	48 81 ec a8 20 00 00 	sub    $0x20a8,%rsp
  401bba:	48 c7 85 50 df ff ff 	movq   $0x401a80,-0x20b0(%rbp)
  401bc1:	80 1a 40 00 
  401bc5:	e8 a6 f5 ff ff       	call   401170 <sigemptyset@plt>
  401bca:	31 d2                	xor    %edx,%edx
  401bcc:	48 89 de             	mov    %rbx,%rsi
  401bcf:	bf 02 00 00 00       	mov    $0x2,%edi
  401bd4:	c7 85 d8 df ff ff 00 	movl   $0x0,-0x2028(%rbp)
  401bdb:	00 00 00 
  401bde:	48 8d 9d f0 df ff ff 	lea    -0x2010(%rbp),%rbx
  401be5:	e8 96 f5 ff ff       	call   401180 <sigaction@plt>
  401bea:	48 8b 3d 8f 37 00 00 	mov    0x378f(%rip),%rdi        # 405380 <stdout@GLIBC_2.2.5>
  401bf1:	31 c9                	xor    %ecx,%ecx
  401bf3:	31 f6                	xor    %esi,%esi
  401bf5:	ba 02 00 00 00       	mov    $0x2,%edx
  401bfa:	e8 31 f4 ff ff       	call   401030 <setvbuf@plt>
  401bff:	48 8b 3d 9a 37 00 00 	mov    0x379a(%rip),%rdi        # 4053a0 <stderr@GLIBC_2.2.5>
  401c06:	31 c9                	xor    %ecx,%ecx
  401c08:	31 f6                	xor    %esi,%esi
  401c0a:	ba 02 00 00 00       	mov    $0x2,%edx
  401c0f:	e8 1c f4 ff ff       	call   401030 <setvbuf@plt>
  401c14:	48 89 df             	mov    %rbx,%rdi
  401c17:	e8 f4 08 00 00       	call   402510 <_Z11init_driverPc>
  401c1c:	85 c0                	test   %eax,%eax
  401c1e:	78 10                	js     401c30 <_Z15initialize_bombv+0x90>
  401c20:	bf 60 1b 40 00       	mov    $0x401b60,%edi
  401c25:	e8 b6 0a 00 00       	call   4026e0 <atexit>
  401c2a:	48 8b 5d f8          	mov    -0x8(%rbp),%rbx
  401c2e:	c9                   	leave
  401c2f:	c3                   	ret
  401c30:	bf 2f 31 40 00       	mov    $0x40312f,%edi
  401c35:	48 89 de             	mov    %rbx,%rsi
  401c38:	31 c0                	xor    %eax,%eax
  401c3a:	e8 11 f4 ff ff       	call   401050 <printf@plt>
  401c3f:	bf 08 00 00 00       	mov    $0x8,%edi
  401c44:	e8 17 f5 ff ff       	call   401160 <exit@plt>
  401c49:	0f 1f 80 00 00 00 00 	nopl   0x0(%rax)

0000000000401c50 <_Z21initialize_bomb_solvev>:
  401c50:	c3                   	ret
  401c51:	66 66 2e 0f 1f 84 00 	data16 cs nopw 0x0(%rax,%rax,1)
  401c58:	00 00 00 00 
  401c5c:	0f 1f 40 00          	nopl   0x0(%rax)

0000000000401c60 <_Z10blank_linePc>:
  401c60:	55                   	push   %rbp
  401c61:	48 89 e5             	mov    %rsp,%rbp
  401c64:	53                   	push   %rbx
  401c65:	48 89 fb             	mov    %rdi,%rbx
  401c68:	48 83 ec 08          	sub    $0x8,%rsp
  401c6c:	eb 0f                	jmp    401c7d <_Z10blank_linePc+0x1d>
  401c6e:	66 90                	xchg   %ax,%ax
  401c70:	48 83 c3 01          	add    $0x1,%rbx
  401c74:	e8 e7 f3 ff ff       	call   401060 <isspace@plt>
  401c79:	85 c0                	test   %eax,%eax
  401c7b:	74 0d                	je     401c8a <_Z10blank_linePc+0x2a>
  401c7d:	0f be 3b             	movsbl (%rbx),%edi
  401c80:	40 84 ff             	test   %dil,%dil
  401c83:	75 eb                	jne    401c70 <_Z10blank_linePc+0x10>
  401c85:	b8 01 00 00 00       	mov    $0x1,%eax
  401c8a:	48 8b 5d f8          	mov    -0x8(%rbp),%rbx
  401c8e:	c9                   	leave
  401c8f:	c3                   	ret

0000000000401c90 <_Z9read_linev>:
  401c90:	55                   	push   %rbp
  401c91:	48 63 05 28 37 00 00 	movslq 0x3728(%rip),%rax        # 4053c0 <ndefused>
  401c98:	48 89 e5             	mov    %rsp,%rbp
  401c9b:	41 54                	push   %r12
  401c9d:	53                   	push   %rbx
  401c9e:	83 f8 13             	cmp    $0x13,%eax
  401ca1:	0f 87 ed 00 00 00    	ja     401d94 <_Z9read_linev+0x104>
  401ca7:	4c 8d 24 80          	lea    (%rax,%rax,4),%r12
  401cab:	49 c1 e4 05          	shl    $0x5,%r12
  401caf:	49 81 c4 e0 53 40 00 	add    $0x4053e0,%r12
  401cb6:	66 2e 0f 1f 84 00 00 	cs nopw 0x0(%rax,%rax,1)
  401cbd:	00 00 00 
  401cc0:	48 8b 15 e9 36 00 00 	mov    0x36e9(%rip),%rdx        # 4053b0 <infile>
  401cc7:	be a0 00 00 00       	mov    $0xa0,%esi
  401ccc:	4c 89 e7             	mov    %r12,%rdi
  401ccf:	4c 89 e3             	mov    %r12,%rbx
  401cd2:	e8 09 f5 ff ff       	call   4011e0 <fgets@plt>
  401cd7:	48 85 c0             	test   %rax,%rax
  401cda:	0f 84 98 00 00 00    	je     401d78 <_Z9read_linev+0xe8>
  401ce0:	0f be 3b             	movsbl (%rbx),%edi
  401ce3:	40 84 ff             	test   %dil,%dil
  401ce6:	74 d8                	je     401cc0 <_Z9read_linev+0x30>
  401ce8:	48 83 c3 01          	add    $0x1,%rbx
  401cec:	e8 6f f3 ff ff       	call   401060 <isspace@plt>
  401cf1:	85 c0                	test   %eax,%eax
  401cf3:	75 eb                	jne    401ce0 <_Z9read_linev+0x50>
  401cf5:	4c 89 e7             	mov    %r12,%rdi
  401cf8:	e8 c3 f3 ff ff       	call   4010c0 <strlen@plt>
  401cfd:	48 3d 9e 00 00 00    	cmp    $0x9e,%rax
  401d03:	76 53                	jbe    401d58 <_Z9read_linev+0xc8>
  401d05:	41 80 bc 24 9f 00 00 	cmpb   $0xa,0x9f(%r12)
  401d0c:	00 0a 
  401d0e:	74 30                	je     401d40 <_Z9read_linev+0xb0>
  401d10:	bf 7b 31 40 00       	mov    $0x40317b,%edi
  401d15:	e8 b6 f4 ff ff       	call   4011d0 <puts@plt>
  401d1a:	4c 89 e7             	mov    %r12,%rdi
  401d1d:	be 96 31 40 00       	mov    $0x403196,%esi
  401d22:	e8 e9 f3 ff ff       	call   401110 <strcpy@plt>
  401d27:	4c 89 e7             	mov    %r12,%rdi
  401d2a:	e8 91 f3 ff ff       	call   4010c0 <strlen@plt>
  401d2f:	48 85 c0             	test   %rax,%rax
  401d32:	74 29                	je     401d5d <_Z9read_linev+0xcd>
  401d34:	66 66 2e 0f 1f 84 00 	data16 cs nopw 0x0(%rax,%rax,1)
  401d3b:	00 00 00 00 
  401d3f:	90                   	nop
  401d40:	48 83 e8 01          	sub    $0x1,%rax
  401d44:	41 0f b6 14 04       	movzbl (%r12,%rax,1),%edx
  401d49:	80 fa 0a             	cmp    $0xa,%dl
  401d4c:	74 05                	je     401d53 <_Z9read_linev+0xc3>
  401d4e:	80 fa 0d             	cmp    $0xd,%dl
  401d51:	75 0a                	jne    401d5d <_Z9read_linev+0xcd>
  401d53:	41 c6 04 04 00       	movb   $0x0,(%r12,%rax,1)
  401d58:	48 85 c0             	test   %rax,%rax
  401d5b:	75 e3                	jne    401d40 <_Z9read_linev+0xb0>
  401d5d:	4c 89 e6             	mov    %r12,%rsi
  401d60:	bf 80 60 40 00       	mov    $0x406080,%edi
  401d65:	e8 a6 f3 ff ff       	call   401110 <strcpy@plt>
  401d6a:	4c 89 e0             	mov    %r12,%rax
  401d6d:	5b                   	pop    %rbx
  401d6e:	41 5c                	pop    %r12
  401d70:	5d                   	pop    %rbp
  401d71:	c3                   	ret
  401d72:	66 0f 1f 44 00 00    	nopw   0x0(%rax,%rax,1)
  401d78:	48 8b 05 11 36 00 00 	mov    0x3611(%rip),%rax        # 405390 <stdin@GLIBC_2.2.5>
  401d7f:	48 39 05 2a 36 00 00 	cmp    %rax,0x362a(%rip)        # 4053b0 <infile>
  401d86:	74 25                	je     401dad <_Z9read_linev+0x11d>
  401d88:	48 89 05 21 36 00 00 	mov    %rax,0x3621(%rip)        # 4053b0 <infile>
  401d8f:	e9 2c ff ff ff       	jmp    401cc0 <_Z9read_linev+0x30>
  401d94:	b9 49 31 40 00       	mov    $0x403149,%ecx
  401d99:	ba c4 00 00 00       	mov    $0xc4,%edx
  401d9e:	be 5b 31 40 00       	mov    $0x40315b,%esi
  401da3:	bf a0 34 40 00       	mov    $0x4034a0,%edi
  401da8:	e8 23 f3 ff ff       	call   4010d0 <__assert_fail@plt>
  401dad:	bf 66 31 40 00       	mov    $0x403166,%edi
  401db2:	e8 19 f4 ff ff       	call   4011d0 <puts@plt>
  401db7:	bf 08 00 00 00       	mov    $0x8,%edi
  401dbc:	e8 3f f4 ff ff       	call   401200 <_exit@plt>
  401dc1:	66 66 2e 0f 1f 84 00 	data16 cs nopw 0x0(%rax,%rax,1)
  401dc8:	00 00 00 00 
  401dcc:	0f 1f 40 00          	nopl   0x0(%rax)

0000000000401dd0 <_Z8send_msgi>:
  401dd0:	55                   	push   %rbp
  401dd1:	48 89 e5             	mov    %rsp,%rbp
  401dd4:	53                   	push   %rbx
  401dd5:	89 fb                	mov    %edi,%ebx
  401dd7:	bf 80 60 40 00       	mov    $0x406080,%edi
  401ddc:	48 81 ec 08 40 00 00 	sub    $0x4008,%rsp
  401de3:	e8 d8 f2 ff ff       	call   4010c0 <strlen@plt>
  401de8:	48 83 c0 64          	add    $0x64,%rax
  401dec:	48 3d 00 20 00 00    	cmp    $0x2000,%rax
  401df2:	77 77                	ja     401e6b <_Z8send_msgi+0x9b>
  401df4:	85 db                	test   %ebx,%ebx
  401df6:	b8 ab 31 40 00       	mov    $0x4031ab,%eax
  401dfb:	b9 b3 31 40 00       	mov    $0x4031b3,%ecx
  401e00:	8b 15 72 35 00 00    	mov    0x3572(%rip),%edx        # 405378 <bomb_id>
  401e06:	48 0f 45 c8          	cmovne %rax,%rcx
  401e0a:	8b 05 b0 35 00 00    	mov    0x35b0(%rip),%eax        # 4053c0 <ndefused>
  401e10:	48 8d 9d f0 bf ff ff 	lea    -0x4010(%rbp),%rbx
  401e17:	be bc 31 40 00       	mov    $0x4031bc,%esi
  401e1c:	48 89 df             	mov    %rbx,%rdi
  401e1f:	41 b9 80 60 40 00    	mov    $0x406080,%r9d
  401e25:	44 8d 40 01          	lea    0x1(%rax),%r8d
  401e29:	31 c0                	xor    %eax,%eax
  401e2b:	e8 40 f2 ff ff       	call   401070 <sprintf@plt>
  401e30:	31 c9                	xor    %ecx,%ecx
  401e32:	48 89 da             	mov    %rbx,%rdx
  401e35:	be 50 53 40 00       	mov    $0x405350,%esi
  401e3a:	4c 8d 85 f0 df ff ff 	lea    -0x2010(%rbp),%r8
  401e41:	bf 68 53 40 00       	mov    $0x405368,%edi
  401e46:	e8 e5 07 00 00       	call   402630 <_Z11driver_postPcS_S_iS_>
  401e4b:	85 c0                	test   %eax,%eax
  401e4d:	78 09                	js     401e58 <_Z8send_msgi+0x88>
  401e4f:	48 8b 5d f8          	mov    -0x8(%rbp),%rbx
  401e53:	c9                   	leave
  401e54:	c3                   	ret
  401e55:	0f 1f 00             	nopl   (%rax)
  401e58:	48 8d bd f0 df ff ff 	lea    -0x2010(%rbp),%rdi
  401e5f:	e8 6c f3 ff ff       	call   4011d0 <puts@plt>
  401e64:	31 ff                	xor    %edi,%edi
  401e66:	e8 95 f3 ff ff       	call   401200 <_exit@plt>
  401e6b:	bf c8 34 40 00       	mov    $0x4034c8,%edi
  401e70:	e8 5b f3 ff ff       	call   4011d0 <puts@plt>
  401e75:	bf 08 00 00 00       	mov    $0x8,%edi
  401e7a:	e8 81 f3 ff ff       	call   401200 <_exit@plt>
  401e7f:	90                   	nop

0000000000401e80 <_Z12explode_bombv>:
  401e80:	55                   	push   %rbp
  401e81:	bf c8 31 40 00       	mov    $0x4031c8,%edi
  401e86:	48 89 e5             	mov    %rsp,%rbp
  401e89:	e8 42 f3 ff ff       	call   4011d0 <puts@plt>
  401e8e:	bf d1 31 40 00       	mov    $0x4031d1,%edi
  401e93:	e8 38 f3 ff ff       	call   4011d0 <puts@plt>
  401e98:	31 ff                	xor    %edi,%edi
  401e9a:	e8 31 ff ff ff       	call   401dd0 <_Z8send_msgi>
  401e9f:	bf f0 34 40 00       	mov    $0x4034f0,%edi
  401ea4:	e8 27 f3 ff ff       	call   4011d0 <puts@plt>
  401ea9:	bf 08 00 00 00       	mov    $0x8,%edi
  401eae:	e8 4d f3 ff ff       	call   401200 <_exit@plt>
  401eb3:	66 66 2e 0f 1f 84 00 	data16 cs nopw 0x0(%rax,%rax,1)
  401eba:	00 00 00 00 
  401ebe:	66 90                	xchg   %ax,%ax

0000000000401ec0 <_Z16read_six_numbersPKcPi>:
  401ec0:	55                   	push   %rbp
  401ec1:	48 8d 46 14          	lea    0x14(%rsi),%rax
  401ec5:	48 89 f2             	mov    %rsi,%rdx
  401ec8:	48 8d 4e 04          	lea    0x4(%rsi),%rcx
  401ecc:	4c 8d 4e 0c          	lea    0xc(%rsi),%r9
  401ed0:	4c 8d 46 08          	lea    0x8(%rsi),%r8
  401ed4:	48 89 e5             	mov    %rsp,%rbp
  401ed7:	50                   	push   %rax
  401ed8:	48 8d 46 10          	lea    0x10(%rsi),%rax
  401edc:	be e8 31 40 00       	mov    $0x4031e8,%esi
  401ee1:	50                   	push   %rax
  401ee2:	31 c0                	xor    %eax,%eax
  401ee4:	e8 37 f2 ff ff       	call   401120 <__isoc99_sscanf@plt>
  401ee9:	5a                   	pop    %rdx
  401eea:	59                   	pop    %rcx
  401eeb:	83 f8 05             	cmp    $0x5,%eax
  401eee:	7e 02                	jle    401ef2 <_Z16read_six_numbersPKcPi+0x32>
  401ef0:	c9                   	leave
  401ef1:	c3                   	ret
  401ef2:	e8 89 ff ff ff       	call   401e80 <_Z12explode_bombv>
  401ef7:	66 0f 1f 84 00 00 00 	nopw   0x0(%rax,%rax,1)
  401efe:	00 00 

0000000000401f00 <_Z13phase_defusedv>:
  401f00:	55                   	push   %rbp
  401f01:	bf 01 00 00 00       	mov    $0x1,%edi
  401f06:	48 89 e5             	mov    %rsp,%rbp
  401f09:	e8 c2 fe ff ff       	call   401dd0 <_Z8send_msgi>
  401f0e:	83 05 ab 34 00 00 01 	addl   $0x1,0x34ab(%rip)        # 4053c0 <ndefused>
  401f15:	5d                   	pop    %rbp
  401f16:	c3                   	ret
  401f17:	66 0f 1f 84 00 00 00 	nopw   0x0(%rax,%rax,1)
  401f1e:	00 00 

0000000000401f20 <_Z15sigalrm_handleri>:
  401f20:	55                   	push   %rbp
  401f21:	48 8b 3d 78 34 00 00 	mov    0x3478(%rip),%rdi        # 4053a0 <stderr@GLIBC_2.2.5>
  401f28:	31 d2                	xor    %edx,%edx
  401f2a:	be 18 35 40 00       	mov    $0x403518,%esi
  401f2f:	31 c0                	xor    %eax,%eax
  401f31:	48 89 e5             	mov    %rsp,%rbp
  401f34:	e8 77 f2 ff ff       	call   4011b0 <fprintf@plt>
  401f39:	bf 01 00 00 00       	mov    $0x1,%edi
  401f3e:	e8 bd f2 ff ff       	call   401200 <_exit@plt>
  401f43:	66 66 2e 0f 1f 84 00 	data16 cs nopw 0x0(%rax,%rax,1)
  401f4a:	00 00 00 00 
  401f4e:	66 90                	xchg   %ax,%ax

0000000000401f50 <_ZL13rio_readlinebP5rio_tPvm.constprop.0>:
  401f50:	55                   	push   %rbp
  401f51:	48 89 e5             	mov    %rsp,%rbp
  401f54:	41 57                	push   %r15
  401f56:	49 89 ff             	mov    %rdi,%r15
  401f59:	41 56                	push   %r14
  401f5b:	41 be 01 00 00 00    	mov    $0x1,%r14d
  401f61:	41 55                	push   %r13
  401f63:	49 89 f5             	mov    %rsi,%r13
  401f66:	41 54                	push   %r12
  401f68:	53                   	push   %rbx
  401f69:	48 8d 5f 10          	lea    0x10(%rdi),%rbx
  401f6d:	48 83 ec 08          	sub    $0x8,%rsp
  401f71:	eb 3c                	jmp    401faf <_ZL13rio_readlinebP5rio_tPvm.constprop.0+0x5f>
  401f73:	0f 1f 44 00 00       	nopl   0x0(%rax,%rax,1)
  401f78:	0f 84 82 00 00 00    	je     402000 <_ZL13rio_readlinebP5rio_tPvm.constprop.0+0xb0>
  401f7e:	49 89 5f 08          	mov    %rbx,0x8(%r15)
  401f82:	41 0f b6 04 24       	movzbl (%r12),%eax
  401f87:	83 ea 01             	sub    $0x1,%edx
  401f8a:	49 83 c4 01          	add    $0x1,%r12
  401f8e:	49 83 c5 01          	add    $0x1,%r13
  401f92:	4d 89 67 08          	mov    %r12,0x8(%r15)
  401f96:	41 89 57 04          	mov    %edx,0x4(%r15)
  401f9a:	41 88 45 ff          	mov    %al,-0x1(%r13)
  401f9e:	3c 0a                	cmp    $0xa,%al
  401fa0:	74 66                	je     402008 <_ZL13rio_readlinebP5rio_tPvm.constprop.0+0xb8>
  401fa2:	49 83 c6 01          	add    $0x1,%r14
  401fa6:	49 81 fe 00 20 00 00 	cmp    $0x2000,%r14
  401fad:	74 70                	je     40201f <_ZL13rio_readlinebP5rio_tPvm.constprop.0+0xcf>
  401faf:	41 8b 57 04          	mov    0x4(%r15),%edx
  401fb3:	49 89 dc             	mov    %rbx,%r12
  401fb6:	85 d2                	test   %edx,%edx
  401fb8:	7f 6c                	jg     402026 <_ZL13rio_readlinebP5rio_tPvm.constprop.0+0xd6>
  401fba:	66 0f 1f 44 00 00    	nopw   0x0(%rax,%rax,1)
  401fc0:	41 8b 3f             	mov    (%r15),%edi
  401fc3:	ba 00 20 00 00       	mov    $0x2000,%edx
  401fc8:	48 89 de             	mov    %rbx,%rsi
  401fcb:	e8 f0 f1 ff ff       	call   4011c0 <read@plt>
  401fd0:	41 89 47 04          	mov    %eax,0x4(%r15)
  401fd4:	89 c2                	mov    %eax,%edx
  401fd6:	85 c0                	test   %eax,%eax
  401fd8:	79 9e                	jns    401f78 <_ZL13rio_readlinebP5rio_tPvm.constprop.0+0x28>
  401fda:	e8 61 f0 ff ff       	call   401040 <__errno_location@plt>
  401fdf:	83 38 04             	cmpl   $0x4,(%rax)
  401fe2:	74 dc                	je     401fc0 <_ZL13rio_readlinebP5rio_tPvm.constprop.0+0x70>
  401fe4:	48 c7 c0 ff ff ff ff 	mov    $0xffffffffffffffff,%rax
  401feb:	48 83 c4 08          	add    $0x8,%rsp
  401fef:	5b                   	pop    %rbx
  401ff0:	41 5c                	pop    %r12
  401ff2:	41 5d                	pop    %r13
  401ff4:	41 5e                	pop    %r14
  401ff6:	41 5f                	pop    %r15
  401ff8:	5d                   	pop    %rbp
  401ff9:	c3                   	ret
  401ffa:	66 0f 1f 44 00 00    	nopw   0x0(%rax,%rax,1)
  402000:	31 c0                	xor    %eax,%eax
  402002:	49 83 fe 01          	cmp    $0x1,%r14
  402006:	74 e3                	je     401feb <_ZL13rio_readlinebP5rio_tPvm.constprop.0+0x9b>
  402008:	4c 89 f0             	mov    %r14,%rax
  40200b:	41 c6 45 00 00       	movb   $0x0,0x0(%r13)
  402010:	48 83 c4 08          	add    $0x8,%rsp
  402014:	5b                   	pop    %rbx
  402015:	41 5c                	pop    %r12
  402017:	41 5d                	pop    %r13
  402019:	41 5e                	pop    %r14
  40201b:	41 5f                	pop    %r15
  40201d:	5d                   	pop    %rbp
  40201e:	c3                   	ret
  40201f:	b8 00 20 00 00       	mov    $0x2000,%eax
  402024:	eb e5                	jmp    40200b <_ZL13rio_readlinebP5rio_tPvm.constprop.0+0xbb>
  402026:	4d 8b 67 08          	mov    0x8(%r15),%r12
  40202a:	e9 53 ff ff ff       	jmp    401f82 <_ZL13rio_readlinebP5rio_tPvm.constprop.0+0x32>
  40202f:	90                   	nop

0000000000402030 <_Z7submitrPKciS0_S0_S0_S0_S0_Pc>:
  402030:	55                   	push   %rbp
  402031:	48 89 e5             	mov    %rsp,%rbp
  402034:	41 57                	push   %r15
  402036:	49 89 ff             	mov    %rdi,%r15
  402039:	bf 02 00 00 00       	mov    $0x2,%edi
  40203e:	41 56                	push   %r14
  402040:	41 55                	push   %r13
  402042:	41 54                	push   %r12
  402044:	41 89 f4             	mov    %esi,%r12d
  402047:	be 01 00 00 00       	mov    $0x1,%esi
  40204c:	53                   	push   %rbx
  40204d:	48 81 ec 58 c0 00 00 	sub    $0xc058,%rsp
  402054:	48 89 95 98 3f ff ff 	mov    %rdx,-0xc068(%rbp)
  40205b:	31 d2                	xor    %edx,%edx
  40205d:	4c 8b 75 10          	mov    0x10(%rbp),%r14
  402061:	48 89 8d 90 3f ff ff 	mov    %rcx,-0xc070(%rbp)
  402068:	4c 89 85 80 3f ff ff 	mov    %r8,-0xc080(%rbp)
  40206f:	4c 89 8d 88 3f ff ff 	mov    %r9,-0xc078(%rbp)
  402076:	c7 85 ac 3f ff ff 00 	movl   $0x0,-0xc054(%rbp)
  40207d:	00 00 00 
  402080:	e8 fb ef ff ff       	call   401080 <socket@plt>
  402085:	85 c0                	test   %eax,%eax
  402087:	0f 88 c8 03 00 00    	js     402455 <_Z7submitrPKciS0_S0_S0_S0_S0_Pc+0x425>
  40208d:	4c 89 ff             	mov    %r15,%rdi
  402090:	89 c3                	mov    %eax,%ebx
  402092:	e8 99 f0 ff ff       	call   401130 <gethostbyname@plt>
  402097:	48 85 c0             	test   %rax,%rax
  40209a:	0f 84 df 03 00 00    	je     40247f <_Z7submitrPKciS0_S0_S0_S0_S0_Pc+0x44f>
  4020a0:	48 c7 85 b2 3f ff ff 	movq   $0x0,-0xc04e(%rbp)
  4020a7:	00 00 00 00 
  4020ab:	b9 02 00 00 00       	mov    $0x2,%ecx
  4020b0:	48 8d bd b4 3f ff ff 	lea    -0xc04c(%rbp),%rdi
  4020b7:	4c 8d bd b0 3f ff ff 	lea    -0xc050(%rbp),%r15
  4020be:	48 c7 85 b8 3f ff ff 	movq   $0x0,-0xc048(%rbp)
  4020c5:	00 00 00 00 
  4020c9:	48 63 50 14          	movslq 0x14(%rax),%rdx
  4020cd:	66 41 c1 c4 08       	rol    $0x8,%r12w
  4020d2:	48 8b 40 18          	mov    0x18(%rax),%rax
  4020d6:	66 89 8d b0 3f ff ff 	mov    %cx,-0xc050(%rbp)
  4020dd:	48 8b 30             	mov    (%rax),%rsi
  4020e0:	e8 0b f1 ff ff       	call   4011f0 <memmove@plt>
  4020e5:	ba 10 00 00 00       	mov    $0x10,%edx
  4020ea:	4c 89 fe             	mov    %r15,%rsi
  4020ed:	89 df                	mov    %ebx,%edi
  4020ef:	66 44 89 a5 b2 3f ff 	mov    %r12w,-0xc04e(%rbp)
  4020f6:	ff 
  4020f7:	e8 f4 ef ff ff       	call   4010f0 <connect@plt>
  4020fc:	85 c0                	test   %eax,%eax
  4020fe:	0f 88 95 03 00 00    	js     402499 <_Z7submitrPKciS0_S0_S0_S0_S0_Pc+0x469>
  402104:	4c 89 f7             	mov    %r14,%rdi
  402107:	e8 b4 ef ff ff       	call   4010c0 <strlen@plt>
  40210c:	48 8b bd 98 3f ff ff 	mov    -0xc068(%rbp),%rdi
  402113:	49 89 c5             	mov    %rax,%r13
  402116:	e8 a5 ef ff ff       	call   4010c0 <strlen@plt>
  40211b:	48 8b bd 90 3f ff ff 	mov    -0xc070(%rbp),%rdi
  402122:	49 89 c7             	mov    %rax,%r15
  402125:	e8 96 ef ff ff       	call   4010c0 <strlen@plt>
  40212a:	48 8b bd 88 3f ff ff 	mov    -0xc078(%rbp),%rdi
  402131:	49 01 c7             	add    %rax,%r15
  402134:	e8 87 ef ff ff       	call   4010c0 <strlen@plt>
  402139:	4b 8d 54 6d 00       	lea    0x0(%r13,%r13,2),%rdx
  40213e:	49 8d 84 07 80 00 00 	lea    0x80(%r15,%rax,1),%rax
  402145:	00 
  402146:	48 01 d0             	add    %rdx,%rax
  402149:	48 3d 00 20 00 00    	cmp    $0x2000,%rax
  40214f:	0f 87 c9 02 00 00    	ja     40241e <_Z7submitrPKciS0_S0_S0_S0_S0_Pc+0x3ee>
  402155:	4c 8d ad c0 3f ff ff 	lea    -0xc040(%rbp),%r13
  40215c:	31 c0                	xor    %eax,%eax
  40215e:	b9 00 04 00 00       	mov    $0x400,%ecx
  402163:	4c 89 ef             	mov    %r13,%rdi
  402166:	f3 48 ab             	rep stos %rax,%es:(%rdi)
  402169:	4c 89 f7             	mov    %r14,%rdi
  40216c:	e8 4f ef ff ff       	call   4010c0 <strlen@plt>
  402171:	85 c0                	test   %eax,%eax
  402173:	0f 84 82 00 00 00    	je     4021fb <_Z7submitrPKciS0_S0_S0_S0_S0_Pc+0x1cb>
  402179:	48 b9 26 00 ff ff ff 	movabs $0xffdfffffffff0026,%rcx
  402180:	ff df ff 
  402183:	83 e8 01             	sub    $0x1,%eax
  402186:	4d 89 ec             	mov    %r13,%r12
  402189:	4d 8d 7c 06 01       	lea    0x1(%r14,%rax,1),%r15
  40218e:	66 90                	xchg   %ax,%ax
  402190:	41 0f b6 06          	movzbl (%r14),%eax
  402194:	8d 50 d6             	lea    -0x2a(%rax),%edx
  402197:	80 fa 35             	cmp    $0x35,%dl
  40219a:	76 44                	jbe    4021e0 <_Z7submitrPKciS0_S0_S0_S0_S0_Pc+0x1b0>
  40219c:	89 c2                	mov    %eax,%edx
  40219e:	83 e2 df             	and    $0xffffffdf,%edx
  4021a1:	83 ea 41             	sub    $0x41,%edx
  4021a4:	80 fa 19             	cmp    $0x19,%dl
  4021a7:	76 41                	jbe    4021ea <_Z7submitrPKciS0_S0_S0_S0_S0_Pc+0x1ba>
  4021a9:	3c 20                	cmp    $0x20,%al
  4021ab:	0f 84 5f 02 00 00    	je     402410 <_Z7submitrPKciS0_S0_S0_S0_S0_Pc+0x3e0>
  4021b1:	8d 50 e0             	lea    -0x20(%rax),%edx
  4021b4:	80 fa 5f             	cmp    $0x5f,%dl
  4021b7:	0f 86 dc 01 00 00    	jbe    402399 <_Z7submitrPKciS0_S0_S0_S0_S0_Pc+0x369>
  4021bd:	3c 09                	cmp    $0x9,%al
  4021bf:	0f 84 d4 01 00 00    	je     402399 <_Z7submitrPKciS0_S0_S0_S0_S0_Pc+0x369>
  4021c5:	48 8b 7d 18          	mov    0x18(%rbp),%rdi
  4021c9:	be 58 37 40 00       	mov    $0x403758,%esi
  4021ce:	e8 3d ef ff ff       	call   401110 <strcpy@plt>
  4021d3:	89 df                	mov    %ebx,%edi
  4021d5:	e8 46 f0 ff ff       	call   401220 <close@plt>
  4021da:	e9 16 02 00 00       	jmp    4023f5 <_Z7submitrPKciS0_S0_S0_S0_S0_Pc+0x3c5>
  4021df:	90                   	nop
  4021e0:	48 0f a3 d1          	bt     %rdx,%rcx
  4021e4:	0f 82 9e 01 00 00    	jb     402388 <_Z7submitrPKciS0_S0_S0_S0_S0_Pc+0x358>
  4021ea:	41 88 04 24          	mov    %al,(%r12)
  4021ee:	49 83 c4 01          	add    $0x1,%r12
  4021f2:	49 83 c6 01          	add    $0x1,%r14
  4021f6:	4d 39 fe             	cmp    %r15,%r14
  4021f9:	75 95                	jne    402190 <_Z7submitrPKciS0_S0_S0_S0_S0_Pc+0x160>
  4021fb:	48 83 ec 08          	sub    $0x8,%rsp
  4021ff:	48 8b 95 98 3f ff ff 	mov    -0xc068(%rbp),%rdx
  402206:	31 c0                	xor    %eax,%eax
  402208:	4c 8b 8d 88 3f ff ff 	mov    -0xc078(%rbp),%r9
  40220f:	41 55                	push   %r13
  402211:	4c 8b 85 80 3f ff ff 	mov    -0xc080(%rbp),%r8
  402218:	4c 8d a5 d0 bf ff ff 	lea    -0x4030(%rbp),%r12
  40221f:	be f8 35 40 00       	mov    $0x4035f8,%esi
  402224:	48 8b 8d 90 3f ff ff 	mov    -0xc070(%rbp),%rcx
  40222b:	4c 89 e7             	mov    %r12,%rdi
  40222e:	e8 3d ee ff ff       	call   401070 <sprintf@plt>
  402233:	4c 89 e7             	mov    %r12,%rdi
  402236:	e8 85 ee ff ff       	call   4010c0 <strlen@plt>
  40223b:	49 89 c7             	mov    %rax,%r15
  40223e:	58                   	pop    %rax
  40223f:	5a                   	pop    %rdx
  402240:	4d 85 ff             	test   %r15,%r15
  402243:	74 32                	je     402277 <_Z7submitrPKciS0_S0_S0_S0_S0_Pc+0x247>
  402245:	4d 89 fd             	mov    %r15,%r13
  402248:	4d 89 e6             	mov    %r12,%r14
  40224b:	0f 1f 44 00 00       	nopl   0x0(%rax,%rax,1)
  402250:	4c 89 ea             	mov    %r13,%rdx
  402253:	4c 89 f6             	mov    %r14,%rsi
  402256:	89 df                	mov    %ebx,%edi
  402258:	e8 43 ee ff ff       	call   4010a0 <write@plt>
  40225d:	48 85 c0             	test   %rax,%rax
  402260:	0f 8e fa 00 00 00    	jle    402360 <_Z7submitrPKciS0_S0_S0_S0_S0_Pc+0x330>
  402266:	49 01 c6             	add    %rax,%r14
  402269:	49 29 c5             	sub    %rax,%r13
  40226c:	75 e2                	jne    402250 <_Z7submitrPKciS0_S0_S0_S0_S0_Pc+0x220>
  40226e:	4d 85 ff             	test   %r15,%r15
  402271:	0f 88 f7 00 00 00    	js     40236e <_Z7submitrPKciS0_S0_S0_S0_S0_Pc+0x33e>
  402277:	4c 8d ad c0 9f ff ff 	lea    -0x6040(%rbp),%r13
  40227e:	48 8d 85 d0 9f ff ff 	lea    -0x6030(%rbp),%rax
  402285:	4c 89 e6             	mov    %r12,%rsi
  402288:	89 9d c0 9f ff ff    	mov    %ebx,-0x6040(%rbp)
  40228e:	4c 89 ef             	mov    %r13,%rdi
  402291:	48 89 85 c8 9f ff ff 	mov    %rax,-0x6038(%rbp)
  402298:	c7 85 c4 9f ff ff 00 	movl   $0x0,-0x603c(%rbp)
  40229f:	00 00 00 
  4022a2:	e8 a9 fc ff ff       	call   401f50 <_ZL13rio_readlinebP5rio_tPvm.constprop.0>
  4022a7:	48 85 c0             	test   %rax,%rax
  4022aa:	0f 8e b5 01 00 00    	jle    402465 <_Z7submitrPKciS0_S0_S0_S0_S0_Pc+0x435>
  4022b0:	48 8d 95 c0 5f ff ff 	lea    -0xa040(%rbp),%rdx
  4022b7:	be 01 32 40 00       	mov    $0x403201,%esi
  4022bc:	4c 89 e7             	mov    %r12,%rdi
  4022bf:	31 c0                	xor    %eax,%eax
  4022c1:	48 8d 8d ac 3f ff ff 	lea    -0xc054(%rbp),%rcx
  4022c8:	4c 8d 85 c0 7f ff ff 	lea    -0x8040(%rbp),%r8
  4022cf:	e8 4c ee ff ff       	call   401120 <__isoc99_sscanf@plt>
  4022d4:	8b 95 ac 3f ff ff    	mov    -0xc054(%rbp),%edx
  4022da:	81 fa c8 00 00 00    	cmp    $0xc8,%edx
  4022e0:	74 1c                	je     4022fe <_Z7submitrPKciS0_S0_S0_S0_S0_Pc+0x2ce>
  4022e2:	e9 4e 01 00 00       	jmp    402435 <_Z7submitrPKciS0_S0_S0_S0_S0_Pc+0x405>
  4022e7:	66 0f 1f 84 00 00 00 	nopw   0x0(%rax,%rax,1)
  4022ee:	00 00 
  4022f0:	e8 5b fc ff ff       	call   401f50 <_ZL13rio_readlinebP5rio_tPvm.constprop.0>
  4022f5:	48 85 c0             	test   %rax,%rax
  4022f8:	0f 8e e2 00 00 00    	jle    4023e0 <_Z7submitrPKciS0_S0_S0_S0_S0_Pc+0x3b0>
  4022fe:	be 12 32 40 00       	mov    $0x403212,%esi
  402303:	4c 89 e7             	mov    %r12,%rdi
  402306:	e8 85 ee ff ff       	call   401190 <strcmp@plt>
  40230b:	4c 89 e6             	mov    %r12,%rsi
  40230e:	4c 89 ef             	mov    %r13,%rdi
  402311:	85 c0                	test   %eax,%eax
  402313:	75 db                	jne    4022f0 <_Z7submitrPKciS0_S0_S0_S0_S0_Pc+0x2c0>
  402315:	e8 36 fc ff ff       	call   401f50 <_ZL13rio_readlinebP5rio_tPvm.constprop.0>
  40231a:	48 85 c0             	test   %rax,%rax
  40231d:	0f 8e 90 01 00 00    	jle    4024b3 <_Z7submitrPKciS0_S0_S0_S0_S0_Pc+0x483>
  402323:	48 8b 7d 18          	mov    0x18(%rbp),%rdi
  402327:	4c 89 e6             	mov    %r12,%rsi
  40232a:	e8 e1 ed ff ff       	call   401110 <strcpy@plt>
  40232f:	89 df                	mov    %ebx,%edi
  402331:	e8 ea ee ff ff       	call   401220 <close@plt>
  402336:	48 8b 7d 18          	mov    0x18(%rbp),%rdi
  40233a:	be 15 32 40 00       	mov    $0x403215,%esi
  40233f:	e8 4c ee ff ff       	call   401190 <strcmp@plt>
  402344:	f7 d8                	neg    %eax
  402346:	19 c0                	sbb    %eax,%eax
  402348:	48 8d 65 d8          	lea    -0x28(%rbp),%rsp
  40234c:	5b                   	pop    %rbx
  40234d:	41 5c                	pop    %r12
  40234f:	41 5d                	pop    %r13
  402351:	41 5e                	pop    %r14
  402353:	41 5f                	pop    %r15
  402355:	5d                   	pop    %rbp
  402356:	c3                   	ret
  402357:	66 0f 1f 84 00 00 00 	nopw   0x0(%rax,%rax,1)
  40235e:	00 00 
  402360:	e8 db ec ff ff       	call   401040 <__errno_location@plt>
  402365:	83 38 04             	cmpl   $0x4,(%rax)
  402368:	0f 84 e2 fe ff ff    	je     402250 <_Z7submitrPKciS0_S0_S0_S0_S0_Pc+0x220>
  40236e:	48 8b 7d 18          	mov    0x18(%rbp),%rdi
  402372:	be 50 36 40 00       	mov    $0x403650,%esi
  402377:	e8 94 ed ff ff       	call   401110 <strcpy@plt>
  40237c:	89 df                	mov    %ebx,%edi
  40237e:	e8 9d ee ff ff       	call   401220 <close@plt>
  402383:	eb 70                	jmp    4023f5 <_Z7submitrPKciS0_S0_S0_S0_S0_Pc+0x3c5>
  402385:	0f 1f 00             	nopl   (%rax)
  402388:	89 c2                	mov    %eax,%edx
  40238a:	83 e2 df             	and    $0xffffffdf,%edx
  40238d:	83 ea 41             	sub    $0x41,%edx
  402390:	80 fa 19             	cmp    $0x19,%dl
  402393:	0f 86 51 fe ff ff    	jbe    4021ea <_Z7submitrPKciS0_S0_S0_S0_S0_Pc+0x1ba>
  402399:	0f b6 d0             	movzbl %al,%edx
  40239c:	be fa 31 40 00       	mov    $0x4031fa,%esi
  4023a1:	31 c0                	xor    %eax,%eax
  4023a3:	49 83 c4 03          	add    $0x3,%r12
  4023a7:	48 8d bd d0 bf ff ff 	lea    -0x4030(%rbp),%rdi
  4023ae:	e8 bd ec ff ff       	call   401070 <sprintf@plt>
  4023b3:	0f b7 85 d0 bf ff ff 	movzwl -0x4030(%rbp),%eax
  4023ba:	48 b9 26 00 ff ff ff 	movabs $0xffdfffffffff0026,%rcx
  4023c1:	ff df ff 
  4023c4:	66 41 89 44 24 fd    	mov    %ax,-0x3(%r12)
  4023ca:	0f b6 85 d2 bf ff ff 	movzbl -0x402e(%rbp),%eax
  4023d1:	41 88 44 24 ff       	mov    %al,-0x1(%r12)
  4023d6:	e9 17 fe ff ff       	jmp    4021f2 <_Z7submitrPKciS0_S0_S0_S0_S0_Pc+0x1c2>
  4023db:	0f 1f 44 00 00       	nopl   0x0(%rax,%rax,1)
  4023e0:	48 8b 7d 18          	mov    0x18(%rbp),%rdi
  4023e4:	be e8 36 40 00       	mov    $0x4036e8,%esi
  4023e9:	e8 22 ed ff ff       	call   401110 <strcpy@plt>
  4023ee:	89 df                	mov    %ebx,%edi
  4023f0:	e8 2b ee ff ff       	call   401220 <close@plt>
  4023f5:	48 8d 65 d8          	lea    -0x28(%rbp),%rsp
  4023f9:	b8 ff ff ff ff       	mov    $0xffffffff,%eax
  4023fe:	5b                   	pop    %rbx
  4023ff:	41 5c                	pop    %r12
  402401:	41 5d                	pop    %r13
  402403:	41 5e                	pop    %r14
  402405:	41 5f                	pop    %r15
  402407:	5d                   	pop    %rbp
  402408:	c3                   	ret
  402409:	0f 1f 80 00 00 00 00 	nopl   0x0(%rax)
  402410:	41 c6 04 24 2b       	movb   $0x2b,(%r12)
  402415:	49 83 c4 01          	add    $0x1,%r12
  402419:	e9 d4 fd ff ff       	jmp    4021f2 <_Z7submitrPKciS0_S0_S0_S0_S0_Pc+0x1c2>
  40241e:	48 8b 7d 18          	mov    0x18(%rbp),%rdi
  402422:	be c0 35 40 00       	mov    $0x4035c0,%esi
  402427:	e8 e4 ec ff ff       	call   401110 <strcpy@plt>
  40242c:	89 df                	mov    %ebx,%edi
  40242e:	e8 ed ed ff ff       	call   401220 <close@plt>
  402433:	eb c0                	jmp    4023f5 <_Z7submitrPKciS0_S0_S0_S0_S0_Pc+0x3c5>
  402435:	48 8b 7d 18          	mov    0x18(%rbp),%rdi
  402439:	48 8d 8d c0 7f ff ff 	lea    -0x8040(%rbp),%rcx
  402440:	be b8 36 40 00       	mov    $0x4036b8,%esi
  402445:	31 c0                	xor    %eax,%eax
  402447:	e8 24 ec ff ff       	call   401070 <sprintf@plt>
  40244c:	89 df                	mov    %ebx,%edi
  40244e:	e8 cd ed ff ff       	call   401220 <close@plt>
  402453:	eb a0                	jmp    4023f5 <_Z7submitrPKciS0_S0_S0_S0_S0_Pc+0x3c5>
  402455:	48 8b 7d 18          	mov    0x18(%rbp),%rdi
  402459:	be 40 35 40 00       	mov    $0x403540,%esi
  40245e:	e8 ad ec ff ff       	call   401110 <strcpy@plt>
  402463:	eb 90                	jmp    4023f5 <_Z7submitrPKciS0_S0_S0_S0_S0_Pc+0x3c5>
  402465:	48 8b 7d 18          	mov    0x18(%rbp),%rdi
  402469:	be 80 36 40 00       	mov    $0x403680,%esi
  40246e:	e8 9d ec ff ff       	call   401110 <strcpy@plt>
  402473:	89 df                	mov    %ebx,%edi
  402475:	e8 a6 ed ff ff       	call   401220 <close@plt>
  40247a:	e9 76 ff ff ff       	jmp    4023f5 <_Z7submitrPKciS0_S0_S0_S0_S0_Pc+0x3c5>
  40247f:	48 8b 7d 18          	mov    0x18(%rbp),%rdi
  402483:	be 68 35 40 00       	mov    $0x403568,%esi
  402488:	e8 83 ec ff ff       	call   401110 <strcpy@plt>
  40248d:	89 df                	mov    %ebx,%edi
  40248f:	e8 8c ed ff ff       	call   401220 <close@plt>
  402494:	e9 5c ff ff ff       	jmp    4023f5 <_Z7submitrPKciS0_S0_S0_S0_S0_Pc+0x3c5>
  402499:	48 8b 7d 18          	mov    0x18(%rbp),%rdi
  40249d:	be 98 35 40 00       	mov    $0x403598,%esi
  4024a2:	e8 69 ec ff ff       	call   401110 <strcpy@plt>
  4024a7:	89 df                	mov    %ebx,%edi
  4024a9:	e8 72 ed ff ff       	call   401220 <close@plt>
  4024ae:	e9 42 ff ff ff       	jmp    4023f5 <_Z7submitrPKciS0_S0_S0_S0_S0_Pc+0x3c5>
  4024b3:	48 8b 7d 18          	mov    0x18(%rbp),%rdi
  4024b7:	be 20 37 40 00       	mov    $0x403720,%esi
  4024bc:	e8 4f ec ff ff       	call   401110 <strcpy@plt>
  4024c1:	89 df                	mov    %ebx,%edi
  4024c3:	e8 58 ed ff ff       	call   401220 <close@plt>
  4024c8:	e9 28 ff ff ff       	jmp    4023f5 <_Z7submitrPKciS0_S0_S0_S0_S0_Pc+0x3c5>
  4024cd:	0f 1f 00             	nopl   (%rax)

00000000004024d0 <_Z12init_timeouti>:
  4024d0:	85 ff                	test   %edi,%edi
  4024d2:	75 04                	jne    4024d8 <_Z12init_timeouti+0x8>
  4024d4:	c3                   	ret
  4024d5:	0f 1f 00             	nopl   (%rax)
  4024d8:	55                   	push   %rbp
  4024d9:	be 20 1f 40 00       	mov    $0x401f20,%esi
  4024de:	48 89 e5             	mov    %rsp,%rbp
  4024e1:	53                   	push   %rbx
  4024e2:	89 fb                	mov    %edi,%ebx
  4024e4:	bf 0e 00 00 00       	mov    $0xe,%edi
  4024e9:	48 83 ec 08          	sub    $0x8,%rsp
  4024ed:	e8 5e ec ff ff       	call   401150 <signal@plt>
  4024f2:	31 c0                	xor    %eax,%eax
  4024f4:	85 db                	test   %ebx,%ebx
  4024f6:	0f 49 c3             	cmovns %ebx,%eax
  4024f9:	48 8b 5d f8          	mov    -0x8(%rbp),%rbx
  4024fd:	c9                   	leave
  4024fe:	89 c7                	mov    %eax,%edi
  402500:	e9 0b ed ff ff       	jmp    401210 <alarm@plt>
  402505:	66 66 2e 0f 1f 84 00 	data16 cs nopw 0x0(%rax,%rax,1)
  40250c:	00 00 00 00 

0000000000402510 <_Z11init_driverPc>:
  402510:	55                   	push   %rbp
  402511:	be 01 00 00 00       	mov    $0x1,%esi
  402516:	48 89 e5             	mov    %rsp,%rbp
  402519:	41 55                	push   %r13
  40251b:	41 54                	push   %r12
  40251d:	49 89 fc             	mov    %rdi,%r12
  402520:	bf 0d 00 00 00       	mov    $0xd,%edi
  402525:	53                   	push   %rbx
  402526:	48 83 ec 18          	sub    $0x18,%rsp
  40252a:	e8 21 ec ff ff       	call   401150 <signal@plt>
  40252f:	be 01 00 00 00       	mov    $0x1,%esi
  402534:	bf 1d 00 00 00       	mov    $0x1d,%edi
  402539:	e8 12 ec ff ff       	call   401150 <signal@plt>
  40253e:	be 01 00 00 00       	mov    $0x1,%esi
  402543:	bf 1d 00 00 00       	mov    $0x1d,%edi
  402548:	e8 03 ec ff ff       	call   401150 <signal@plt>
  40254d:	31 d2                	xor    %edx,%edx
  40254f:	be 01 00 00 00       	mov    $0x1,%esi
  402554:	bf 02 00 00 00       	mov    $0x2,%edi
  402559:	e8 22 eb ff ff       	call   401080 <socket@plt>
  40255e:	85 c0                	test   %eax,%eax
  402560:	0f 88 83 00 00 00    	js     4025e9 <_Z11init_driverPc+0xd9>
  402566:	bf 18 32 40 00       	mov    $0x403218,%edi
  40256b:	89 c3                	mov    %eax,%ebx
  40256d:	e8 be eb ff ff       	call   401130 <gethostbyname@plt>
  402572:	48 85 c0             	test   %rax,%rax
  402575:	0f 84 9f 00 00 00    	je     40261a <_Z11init_driverPc+0x10a>
  40257b:	ba 02 00 00 00       	mov    $0x2,%edx
  402580:	48 c7 45 d2 00 00 00 	movq   $0x0,-0x2e(%rbp)
  402587:	00 
  402588:	48 8d 7d d4          	lea    -0x2c(%rbp),%rdi
  40258c:	4c 8d 6d d0          	lea    -0x30(%rbp),%r13
  402590:	48 c7 45 d8 00 00 00 	movq   $0x0,-0x28(%rbp)
  402597:	00 
  402598:	66 89 55 d0          	mov    %dx,-0x30(%rbp)
  40259c:	48 63 50 14          	movslq 0x14(%rax),%rdx
  4025a0:	48 8b 40 18          	mov    0x18(%rax),%rax
  4025a4:	48 8b 30             	mov    (%rax),%rsi
  4025a7:	e8 44 ec ff ff       	call   4011f0 <memmove@plt>
  4025ac:	b9 3b 6e 00 00       	mov    $0x6e3b,%ecx
  4025b1:	4c 89 ee             	mov    %r13,%rsi
  4025b4:	89 df                	mov    %ebx,%edi
  4025b6:	ba 10 00 00 00       	mov    $0x10,%edx
  4025bb:	66 89 4d d2          	mov    %cx,-0x2e(%rbp)
  4025bf:	e8 2c eb ff ff       	call   4010f0 <connect@plt>
  4025c4:	85 c0                	test   %eax,%eax
  4025c6:	78 35                	js     4025fd <_Z11init_driverPc+0xed>
  4025c8:	89 df                	mov    %ebx,%edi
  4025ca:	e8 51 ec ff ff       	call   401220 <close@plt>
  4025cf:	be 15 32 40 00       	mov    $0x403215,%esi
  4025d4:	4c 89 e7             	mov    %r12,%rdi
  4025d7:	e8 34 eb ff ff       	call   401110 <strcpy@plt>
  4025dc:	31 c0                	xor    %eax,%eax
  4025de:	48 83 c4 18          	add    $0x18,%rsp
  4025e2:	5b                   	pop    %rbx
  4025e3:	41 5c                	pop    %r12
  4025e5:	41 5d                	pop    %r13
  4025e7:	5d                   	pop    %rbp
  4025e8:	c3                   	ret
  4025e9:	be 40 35 40 00       	mov    $0x403540,%esi
  4025ee:	4c 89 e7             	mov    %r12,%rdi
  4025f1:	e8 1a eb ff ff       	call   401110 <strcpy@plt>
  4025f6:	b8 ff ff ff ff       	mov    $0xffffffff,%eax
  4025fb:	eb e1                	jmp    4025de <_Z11init_driverPc+0xce>
  4025fd:	4c 89 e7             	mov    %r12,%rdi
  402600:	ba 18 32 40 00       	mov    $0x403218,%edx
  402605:	be a0 37 40 00       	mov    $0x4037a0,%esi
  40260a:	31 c0                	xor    %eax,%eax
  40260c:	e8 5f ea ff ff       	call   401070 <sprintf@plt>
  402611:	89 df                	mov    %ebx,%edi
  402613:	e8 08 ec ff ff       	call   401220 <close@plt>
  402618:	eb dc                	jmp    4025f6 <_Z11init_driverPc+0xe6>
  40261a:	4c 89 e7             	mov    %r12,%rdi
  40261d:	be 68 35 40 00       	mov    $0x403568,%esi
  402622:	e8 e9 ea ff ff       	call   401110 <strcpy@plt>
  402627:	89 df                	mov    %ebx,%edi
  402629:	e8 f2 eb ff ff       	call   401220 <close@plt>
  40262e:	eb c6                	jmp    4025f6 <_Z11init_driverPc+0xe6>

0000000000402630 <_Z11driver_postPcS_S_iS_>:
  402630:	55                   	push   %rbp
  402631:	48 89 e5             	mov    %rsp,%rbp
  402634:	41 56                	push   %r14
  402636:	4d 89 c6             	mov    %r8,%r14
  402639:	41 55                	push   %r13
  40263b:	41 54                	push   %r12
  40263d:	49 89 d4             	mov    %rdx,%r12
  402640:	53                   	push   %rbx
  402641:	85 c9                	test   %ecx,%ecx
  402643:	75 3b                	jne    402680 <_Z11driver_postPcS_S_iS_+0x50>
  402645:	48 89 fb             	mov    %rdi,%rbx
  402648:	48 85 ff             	test   %rdi,%rdi
  40264b:	74 11                	je     40265e <_Z11driver_postPcS_S_iS_+0x2e>
  40264d:	49 89 f5             	mov    %rsi,%r13
  402650:	be 14 32 40 00       	mov    $0x403214,%esi
  402655:	e8 36 eb ff ff       	call   401190 <strcmp@plt>
  40265a:	85 c0                	test   %eax,%eax
  40265c:	75 42                	jne    4026a0 <_Z11driver_postPcS_S_iS_+0x70>
  40265e:	be 15 32 40 00       	mov    $0x403215,%esi
  402663:	4c 89 f7             	mov    %r14,%rdi
  402666:	e8 a5 ea ff ff       	call   401110 <strcpy@plt>
  40266b:	48 8d 65 e0          	lea    -0x20(%rbp),%rsp
  40266f:	31 c0                	xor    %eax,%eax
  402671:	5b                   	pop    %rbx
  402672:	41 5c                	pop    %r12
  402674:	41 5d                	pop    %r13
  402676:	41 5e                	pop    %r14
  402678:	5d                   	pop    %rbp
  402679:	c3                   	ret
  40267a:	66 0f 1f 44 00 00    	nopw   0x0(%rax,%rax,1)
  402680:	48 89 d6             	mov    %rdx,%rsi
  402683:	bf 2e 32 40 00       	mov    $0x40322e,%edi
  402688:	31 c0                	xor    %eax,%eax
  40268a:	e8 c1 e9 ff ff       	call   401050 <printf@plt>
  40268f:	be 15 32 40 00       	mov    $0x403215,%esi
  402694:	4c 89 f7             	mov    %r14,%rdi
  402697:	e8 74 ea ff ff       	call   401110 <strcpy@plt>
  40269c:	eb cd                	jmp    40266b <_Z11driver_postPcS_S_iS_+0x3b>
  40269e:	66 90                	xchg   %ax,%ax
  4026a0:	41 56                	push   %r14
  4026a2:	48 89 d9             	mov    %rbx,%rcx
  4026a5:	4d 89 e8             	mov    %r13,%r8
  4026a8:	ba 4f 32 40 00       	mov    $0x40324f,%edx
  4026ad:	41 54                	push   %r12
  4026af:	41 b9 45 32 40 00    	mov    $0x403245,%r9d
  4026b5:	be 6e 3b 00 00       	mov    $0x3b6e,%esi
  4026ba:	bf 18 32 40 00       	mov    $0x403218,%edi
  4026bf:	e8 6c f9 ff ff       	call   402030 <_Z7submitrPKciS0_S0_S0_S0_S0_Pc>
  4026c4:	5a                   	pop    %rdx
  4026c5:	59                   	pop    %rcx
  4026c6:	48 8d 65 e0          	lea    -0x20(%rbp),%rsp
  4026ca:	5b                   	pop    %rbx
  4026cb:	41 5c                	pop    %r12
  4026cd:	41 5d                	pop    %r13
  4026cf:	41 5e                	pop    %r14
  4026d1:	5d                   	pop    %rbp
  4026d2:	c3                   	ret
  4026d3:	66 2e 0f 1f 84 00 00 	cs nopw 0x0(%rax,%rax,1)
  4026da:	00 00 00 
  4026dd:	0f 1f 00             	nopl   (%rax)

00000000004026e0 <atexit>:
  4026e0:	f3 0f 1e fa          	endbr64
  4026e4:	48 8b 15 1d 2a 00 00 	mov    0x2a1d(%rip),%rdx        # 405108 <__dso_handle>
  4026eb:	31 f6                	xor    %esi,%esi
  4026ed:	e9 0e ea ff ff       	jmp    401100 <__cxa_atexit@plt>

Disassembly of section .fini:

00000000004026f4 <_fini>:
  4026f4:	f3 0f 1e fa          	endbr64
  4026f8:	48 83 ec 08          	sub    $0x8,%rsp
  4026fc:	48 83 c4 08          	add    $0x8,%rsp
  402700:	c3                   	ret
